ARM GAS  /tmp/ccbPjcbL.s 			page 1


   1              		.cpu cortex-m33
   2              		.arch armv8-m.main
   3              		.fpu fpv4-sp-d16
   4              		.arch_extension dsp
   5              		.eabi_attribute 27, 1
   6              		.eabi_attribute 28, 1
   7              		.eabi_attribute 20, 1
   8              		.eabi_attribute 21, 1
   9              		.eabi_attribute 23, 3
  10              		.eabi_attribute 24, 1
  11              		.eabi_attribute 25, 1
  12              		.eabi_attribute 26, 1
  13              		.eabi_attribute 30, 1
  14              		.eabi_attribute 34, 1
  15              		.eabi_attribute 18, 4
  16              		.file	"microros_time.c"
  17              		.text
  18              	.Ltext0:
  19              		.cfi_sections	.debug_frame
  20              		.file 1 "micro_ros_stm32cubemx_utils/extra_sources/microros_time.c"
  21              		.global	__aeabi_ldivmod
  22              		.section	.text.UTILS_NanosecondsToTimespec,"ax",%progbits
  23              		.align	1
  24              		.global	UTILS_NanosecondsToTimespec
  25              		.syntax unified
  26              		.thumb
  27              		.thumb_func
  29              	UTILS_NanosecondsToTimespec:
  30              	.LVL0:
  31              	.LFB0:
   1:micro_ros_stm32cubemx_utils/extra_sources/microros_time.c **** #include <unistd.h>
   2:micro_ros_stm32cubemx_utils/extra_sources/microros_time.c **** #include <time.h>
   3:micro_ros_stm32cubemx_utils/extra_sources/microros_time.c **** #include "FreeRTOS.h"
   4:micro_ros_stm32cubemx_utils/extra_sources/microros_time.c **** #include "cmsis_os2.h"
   5:micro_ros_stm32cubemx_utils/extra_sources/microros_time.c **** #include "task.h"
   6:micro_ros_stm32cubemx_utils/extra_sources/microros_time.c **** 
   7:micro_ros_stm32cubemx_utils/extra_sources/microros_time.c **** #define MICROSECONDS_PER_SECOND    ( 1000000LL )                                   /**< Microsecond
   8:micro_ros_stm32cubemx_utils/extra_sources/microros_time.c **** #define NANOSECONDS_PER_SECOND     ( 1000000000LL )                                /**< Nanoseconds
   9:micro_ros_stm32cubemx_utils/extra_sources/microros_time.c **** #define NANOSECONDS_PER_TICK       ( NANOSECONDS_PER_SECOND / configTICK_RATE_HZ ) /**< Nanoseconds
  10:micro_ros_stm32cubemx_utils/extra_sources/microros_time.c **** 
  11:micro_ros_stm32cubemx_utils/extra_sources/microros_time.c **** void UTILS_NanosecondsToTimespec( int64_t llSource,
  12:micro_ros_stm32cubemx_utils/extra_sources/microros_time.c ****                                   struct timespec * const pxDestination )
  13:micro_ros_stm32cubemx_utils/extra_sources/microros_time.c **** {
  32              		.loc 1 13 1 view -0
  33              		.cfi_startproc
  34              		@ args = 0, pretend = 0, frame = 0
  35              		@ frame_needed = 0, uses_anonymous_args = 0
  36              		.loc 1 13 1 is_stmt 0 view .LVU1
  37 0000 2DE9F041 		push	{r4, r5, r6, r7, r8, lr}
  38              	.LCFI0:
  39              		.cfi_def_cfa_offset 24
  40              		.cfi_offset 4, -24
  41              		.cfi_offset 5, -20
  42              		.cfi_offset 6, -16
  43              		.cfi_offset 7, -12
  44              		.cfi_offset 8, -8
  45              		.cfi_offset 14, -4
ARM GAS  /tmp/ccbPjcbL.s 			page 2


  46 0004 0746     		mov	r7, r0
  47 0006 0E46     		mov	r6, r1
  48 0008 1446     		mov	r4, r2
  14:micro_ros_stm32cubemx_utils/extra_sources/microros_time.c ****     long lCarrySec = 0;
  49              		.loc 1 14 5 is_stmt 1 view .LVU2
  50              	.LVL1:
  15:micro_ros_stm32cubemx_utils/extra_sources/microros_time.c **** 
  16:micro_ros_stm32cubemx_utils/extra_sources/microros_time.c ****     /* Convert to timespec. */
  17:micro_ros_stm32cubemx_utils/extra_sources/microros_time.c ****     pxDestination->tv_sec = ( time_t ) ( llSource / NANOSECONDS_PER_SECOND );
  51              		.loc 1 17 5 view .LVU3
  52              		.loc 1 17 29 is_stmt 0 view .LVU4
  53 000a 15A3     		adr	r3, .L5+8
  54 000c D3E90023 		ldrd	r2, [r3]
  55              	.LVL2:
  56              		.loc 1 17 29 view .LVU5
  57 0010 FFF7FEFF 		bl	__aeabi_ldivmod
  58              	.LVL3:
  59              		.loc 1 17 29 view .LVU6
  60 0014 0D46     		mov	r5, r1
  61 0016 8046     		mov	r8, r0
  62              		.loc 1 17 27 view .LVU7
  63 0018 2060     		str	r0, [r4]
  64 001a 6160     		str	r1, [r4, #4]
  18:micro_ros_stm32cubemx_utils/extra_sources/microros_time.c ****     pxDestination->tv_nsec = ( long ) ( llSource % NANOSECONDS_PER_SECOND );
  65              		.loc 1 18 5 is_stmt 1 view .LVU8
  66              		.loc 1 18 50 is_stmt 0 view .LVU9
  67 001c 10A3     		adr	r3, .L5+8
  68 001e D3E90023 		ldrd	r2, [r3]
  69 0022 3846     		mov	r0, r7
  70 0024 3146     		mov	r1, r6
  71 0026 FFF7FEFF 		bl	__aeabi_ldivmod
  72              	.LVL4:
  73              		.loc 1 18 28 view .LVU10
  74 002a A260     		str	r2, [r4, #8]
  19:micro_ros_stm32cubemx_utils/extra_sources/microros_time.c **** 
  20:micro_ros_stm32cubemx_utils/extra_sources/microros_time.c ****     /* Subtract from tv_sec if tv_nsec < 0. */
  21:micro_ros_stm32cubemx_utils/extra_sources/microros_time.c ****     if( pxDestination->tv_nsec < 0L )
  75              		.loc 1 21 5 is_stmt 1 view .LVU11
  76              		.loc 1 21 7 is_stmt 0 view .LVU12
  77 002c 002A     		cmp	r2, #0
  78 002e 01DB     		blt	.L4
  79              	.LVL5:
  80              	.L1:
  22:micro_ros_stm32cubemx_utils/extra_sources/microros_time.c ****     {
  23:micro_ros_stm32cubemx_utils/extra_sources/microros_time.c ****         /* Compute the number of seconds to carry. */
  24:micro_ros_stm32cubemx_utils/extra_sources/microros_time.c ****         lCarrySec = ( pxDestination->tv_nsec / ( long ) NANOSECONDS_PER_SECOND ) + 1L;
  25:micro_ros_stm32cubemx_utils/extra_sources/microros_time.c **** 
  26:micro_ros_stm32cubemx_utils/extra_sources/microros_time.c ****         pxDestination->tv_sec -= ( time_t ) ( lCarrySec );
  27:micro_ros_stm32cubemx_utils/extra_sources/microros_time.c ****         pxDestination->tv_nsec += lCarrySec * ( long ) NANOSECONDS_PER_SECOND;
  28:micro_ros_stm32cubemx_utils/extra_sources/microros_time.c ****     }
  29:micro_ros_stm32cubemx_utils/extra_sources/microros_time.c **** }
  81              		.loc 1 29 1 view .LVU13
  82 0030 BDE8F081 		pop	{r4, r5, r6, r7, r8, pc}
  83              	.LVL6:
  84              	.L4:
  24:micro_ros_stm32cubemx_utils/extra_sources/microros_time.c **** 
  85              		.loc 1 24 9 is_stmt 1 view .LVU14
ARM GAS  /tmp/ccbPjcbL.s 			page 3


  24:micro_ros_stm32cubemx_utils/extra_sources/microros_time.c **** 
  86              		.loc 1 24 46 is_stmt 0 view .LVU15
  87 0034 0849     		ldr	r1, .L5
  88 0036 81FB0231 		smull	r3, r1, r1, r2
  89 003a D317     		asrs	r3, r2, #31
  90 003c C3EB2173 		rsb	r3, r3, r1, asr #28
  24:micro_ros_stm32cubemx_utils/extra_sources/microros_time.c **** 
  91              		.loc 1 24 19 view .LVU16
  92 0040 0133     		adds	r3, r3, #1
  93              	.LVL7:
  26:micro_ros_stm32cubemx_utils/extra_sources/microros_time.c ****         pxDestination->tv_nsec += lCarrySec * ( long ) NANOSECONDS_PER_SECOND;
  94              		.loc 1 26 9 is_stmt 1 view .LVU17
  26:micro_ros_stm32cubemx_utils/extra_sources/microros_time.c ****         pxDestination->tv_nsec += lCarrySec * ( long ) NANOSECONDS_PER_SECOND;
  95              		.loc 1 26 31 is_stmt 0 view .LVU18
  96 0042 B8EB0301 		subs	r1, r8, r3
  97 0046 65EBE375 		sbc	r5, r5, r3, asr #31
  98 004a 2160     		str	r1, [r4]
  99 004c 6560     		str	r5, [r4, #4]
  27:micro_ros_stm32cubemx_utils/extra_sources/microros_time.c ****     }
 100              		.loc 1 27 9 is_stmt 1 view .LVU19
  27:micro_ros_stm32cubemx_utils/extra_sources/microros_time.c ****     }
 101              		.loc 1 27 32 is_stmt 0 view .LVU20
 102 004e 0349     		ldr	r1, .L5+4
 103 0050 01FB0322 		mla	r2, r1, r3, r2
 104 0054 A260     		str	r2, [r4, #8]
 105              		.loc 1 29 1 view .LVU21
 106 0056 EBE7     		b	.L1
 107              	.L6:
 108              		.align	3
 109              	.L5:
 110 0058 A12FB844 		.word	1152921505
 111 005c 00CA9A3B 		.word	1000000000
 112 0060 00CA9A3B 		.word	1000000000
 113 0064 00000000 		.word	0
 114              		.cfi_endproc
 115              	.LFE0:
 117              		.section	.text.clock_gettime,"ax",%progbits
 118              		.align	1
 119              		.global	clock_gettime
 120              		.syntax unified
 121              		.thumb
 122              		.thumb_func
 124              	clock_gettime:
 125              	.LVL8:
 126              	.LFB1:
  30:micro_ros_stm32cubemx_utils/extra_sources/microros_time.c **** 
  31:micro_ros_stm32cubemx_utils/extra_sources/microros_time.c **** int clock_gettime( int clock_id,
  32:micro_ros_stm32cubemx_utils/extra_sources/microros_time.c ****                    struct timespec * tp )
  33:micro_ros_stm32cubemx_utils/extra_sources/microros_time.c **** {
 127              		.loc 1 33 1 is_stmt 1 view -0
 128              		.cfi_startproc
 129              		@ args = 0, pretend = 0, frame = 8
 130              		@ frame_needed = 0, uses_anonymous_args = 0
 131              		.loc 1 33 1 is_stmt 0 view .LVU23
 132 0000 70B5     		push	{r4, r5, r6, lr}
 133              	.LCFI1:
 134              		.cfi_def_cfa_offset 16
ARM GAS  /tmp/ccbPjcbL.s 			page 4


 135              		.cfi_offset 4, -16
 136              		.cfi_offset 5, -12
 137              		.cfi_offset 6, -8
 138              		.cfi_offset 14, -4
 139 0002 82B0     		sub	sp, sp, #8
 140              	.LCFI2:
 141              		.cfi_def_cfa_offset 24
 142 0004 0D46     		mov	r5, r1
  34:micro_ros_stm32cubemx_utils/extra_sources/microros_time.c ****     TimeOut_t xCurrentTime = { 0 };
 143              		.loc 1 34 5 is_stmt 1 view .LVU24
 144              		.loc 1 34 15 is_stmt 0 view .LVU25
 145 0006 0024     		movs	r4, #0
 146 0008 0094     		str	r4, [sp]
 147 000a 0194     		str	r4, [sp, #4]
  35:micro_ros_stm32cubemx_utils/extra_sources/microros_time.c **** 
  36:micro_ros_stm32cubemx_utils/extra_sources/microros_time.c ****     /* Intermediate variable used to convert TimeOut_t to struct timespec.
  37:micro_ros_stm32cubemx_utils/extra_sources/microros_time.c ****      * Also used to detect overflow issues. It must be unsigned because the
  38:micro_ros_stm32cubemx_utils/extra_sources/microros_time.c ****      * behavior of signed integer overflow is undefined. */
  39:micro_ros_stm32cubemx_utils/extra_sources/microros_time.c ****     uint64_t ullTickCount = 0ULL;
 148              		.loc 1 39 5 is_stmt 1 view .LVU26
 149              	.LVL9:
  40:micro_ros_stm32cubemx_utils/extra_sources/microros_time.c **** 
  41:micro_ros_stm32cubemx_utils/extra_sources/microros_time.c ****     /* Silence warnings about unused parameters. */
  42:micro_ros_stm32cubemx_utils/extra_sources/microros_time.c ****     ( void ) clock_id;
 150              		.loc 1 42 5 view .LVU27
  43:micro_ros_stm32cubemx_utils/extra_sources/microros_time.c **** 
  44:micro_ros_stm32cubemx_utils/extra_sources/microros_time.c ****     /* Get the current tick count and overflow count. vTaskSetTimeOutState()
  45:micro_ros_stm32cubemx_utils/extra_sources/microros_time.c ****      * is used to get these values because they are both static in tasks.c. */
  46:micro_ros_stm32cubemx_utils/extra_sources/microros_time.c ****     vTaskSetTimeOutState( &xCurrentTime );
 151              		.loc 1 46 5 view .LVU28
 152 000c 6846     		mov	r0, sp
 153              	.LVL10:
 154              		.loc 1 46 5 is_stmt 0 view .LVU29
 155 000e FFF7FEFF 		bl	vTaskSetTimeOutState
 156              	.LVL11:
  47:micro_ros_stm32cubemx_utils/extra_sources/microros_time.c **** 
  48:micro_ros_stm32cubemx_utils/extra_sources/microros_time.c ****     /* Adjust the tick count for the number of times a TickType_t has overflowed.
  49:micro_ros_stm32cubemx_utils/extra_sources/microros_time.c ****      * portMAX_DELAY should be the maximum value of a TickType_t. */
  50:micro_ros_stm32cubemx_utils/extra_sources/microros_time.c ****     ullTickCount = ( uint64_t ) ( xCurrentTime.xOverflowCount ) << ( sizeof( TickType_t ) * 8 );
 157              		.loc 1 50 5 is_stmt 1 view .LVU30
 158              		.loc 1 50 47 is_stmt 0 view .LVU31
 159 0012 009E     		ldr	r6, [sp]
 160              	.LVL12:
  51:micro_ros_stm32cubemx_utils/extra_sources/microros_time.c **** 
  52:micro_ros_stm32cubemx_utils/extra_sources/microros_time.c ****     /* Add the current tick count. */
  53:micro_ros_stm32cubemx_utils/extra_sources/microros_time.c ****     ullTickCount += xCurrentTime.xTimeOnEntering;
 161              		.loc 1 53 5 is_stmt 1 view .LVU32
 162              		.loc 1 53 18 is_stmt 0 view .LVU33
 163 0014 019A     		ldr	r2, [sp, #4]
 164              	.LVL13:
  54:micro_ros_stm32cubemx_utils/extra_sources/microros_time.c **** 
  55:micro_ros_stm32cubemx_utils/extra_sources/microros_time.c ****     /* Convert ullTickCount to timespec. */
  56:micro_ros_stm32cubemx_utils/extra_sources/microros_time.c ****     UTILS_NanosecondsToTimespec( ( int64_t ) ullTickCount * NANOSECONDS_PER_TICK, tp );
 165              		.loc 1 56 5 is_stmt 1 view .LVU34
 166 0016 4FEA461C 		lsl	ip, r6, #5
 167 001a 4CEAD26C 		orr	ip, ip, r2, lsr #27
 168 001e 5301     		lsls	r3, r2, #5
ARM GAS  /tmp/ccbPjcbL.s 			page 5


 169 0020 9B1A     		subs	r3, r3, r2
 170 0022 6CEB060C 		sbc	ip, ip, r6
 171 0026 4FEA4C2C 		lsl	ip, ip, #9
 172 002a 4CEAD35C 		orr	ip, ip, r3, lsr #23
 173 002e 5B02     		lsls	r3, r3, #9
 174 0030 9B18     		adds	r3, r3, r2
 175 0032 46EB0C0C 		adc	ip, r6, ip
 176 0036 4FEA8C11 		lsl	r1, ip, #6
 177 003a 41EA9361 		orr	r1, r1, r3, lsr #26
 178 003e 9801     		lsls	r0, r3, #6
 179 0040 C01A     		subs	r0, r0, r3
 180 0042 61EB0C01 		sbc	r1, r1, ip
 181 0046 8018     		adds	r0, r0, r2
 182 0048 2A46     		mov	r2, r5
 183              	.LVL14:
 184              		.loc 1 56 5 is_stmt 0 view .LVU35
 185 004a 46EB0101 		adc	r1, r6, r1
 186 004e FFF7FEFF 		bl	UTILS_NanosecondsToTimespec
 187              	.LVL15:
  57:micro_ros_stm32cubemx_utils/extra_sources/microros_time.c **** 
  58:micro_ros_stm32cubemx_utils/extra_sources/microros_time.c ****     return 0;
 188              		.loc 1 58 5 is_stmt 1 view .LVU36
  59:micro_ros_stm32cubemx_utils/extra_sources/microros_time.c **** }
 189              		.loc 1 59 1 is_stmt 0 view .LVU37
 190 0052 2046     		mov	r0, r4
 191 0054 02B0     		add	sp, sp, #8
 192              	.LCFI3:
 193              		.cfi_def_cfa_offset 16
 194              		@ sp needed
 195 0056 70BD     		pop	{r4, r5, r6, pc}
 196              		.loc 1 59 1 view .LVU38
 197              		.cfi_endproc
 198              	.LFE1:
 200              		.text
 201              	.Letext0:
 202              		.file 2 "/opt/st/stm32cubeide_1.16.0/plugins/com.st.stm32cube.ide.mcu.externaltools.gnu-tools-for-
 203              		.file 3 "/opt/st/stm32cubeide_1.16.0/plugins/com.st.stm32cube.ide.mcu.externaltools.gnu-tools-for-
 204              		.file 4 "/opt/st/stm32cubeide_1.16.0/plugins/com.st.stm32cube.ide.mcu.externaltools.gnu-tools-for-
 205              		.file 5 "/opt/st/stm32cubeide_1.16.0/plugins/com.st.stm32cube.ide.mcu.externaltools.gnu-tools-for-
 206              		.file 6 "Middlewares/Third_Party/ARM_RTOS_FreeRTOS/Source/portable/GCC/ARM_CM33_NTZ/non_secure/por
 207              		.file 7 "Middlewares/Third_Party/ARM_RTOS_FreeRTOS/Source/include/task.h"
ARM GAS  /tmp/ccbPjcbL.s 			page 6

