ARM GAS  /tmp/ccEI086O.s 			page 1


   1              		.cpu cortex-m33
   2              		.arch armv8-m.main
   3              		.fpu fpv4-sp-d16
   4              		.arch_extension dsp
   5              		.eabi_attribute 27, 1
   6              		.eabi_attribute 28, 1
   7              		.eabi_attribute 20, 1
   8              		.eabi_attribute 21, 1
   9              		.eabi_attribute 23, 3
  10              		.eabi_attribute 24, 1
  11              		.eabi_attribute 25, 1
  12              		.eabi_attribute 26, 1
  13              		.eabi_attribute 30, 1
  14              		.eabi_attribute 34, 1
  15              		.eabi_attribute 18, 4
  16              		.file	"stm32u5xx_hal.c"
  17              		.text
  18              	.Ltext0:
  19              		.cfi_sections	.debug_frame
  20              		.file 1 "Drivers/STM32U5xx_HAL_Driver/Src/stm32u5xx_hal.c"
  21              		.section	.text.HAL_MspInit,"ax",%progbits
  22              		.align	1
  23              		.weak	HAL_MspInit
  24              		.syntax unified
  25              		.thumb
  26              		.thumb_func
  28              	HAL_MspInit:
  29              	.LFB159:
   1:Drivers/STM32U5xx_HAL_Driver/Src/stm32u5xx_hal.c **** /**
   2:Drivers/STM32U5xx_HAL_Driver/Src/stm32u5xx_hal.c ****   ******************************************************************************
   3:Drivers/STM32U5xx_HAL_Driver/Src/stm32u5xx_hal.c ****   * @file    stm32u5xx_hal.c
   4:Drivers/STM32U5xx_HAL_Driver/Src/stm32u5xx_hal.c ****   * @author  MCD Application Team
   5:Drivers/STM32U5xx_HAL_Driver/Src/stm32u5xx_hal.c ****   * @brief   HAL module driver.
   6:Drivers/STM32U5xx_HAL_Driver/Src/stm32u5xx_hal.c ****   *          This is the common part of the HAL initialization
   7:Drivers/STM32U5xx_HAL_Driver/Src/stm32u5xx_hal.c ****   *
   8:Drivers/STM32U5xx_HAL_Driver/Src/stm32u5xx_hal.c ****   ******************************************************************************
   9:Drivers/STM32U5xx_HAL_Driver/Src/stm32u5xx_hal.c ****   * @attention
  10:Drivers/STM32U5xx_HAL_Driver/Src/stm32u5xx_hal.c ****   *
  11:Drivers/STM32U5xx_HAL_Driver/Src/stm32u5xx_hal.c ****   * Copyright (c) 2021 STMicroelectronics.
  12:Drivers/STM32U5xx_HAL_Driver/Src/stm32u5xx_hal.c ****   * All rights reserved.
  13:Drivers/STM32U5xx_HAL_Driver/Src/stm32u5xx_hal.c ****   *
  14:Drivers/STM32U5xx_HAL_Driver/Src/stm32u5xx_hal.c ****   * This software is licensed under terms that can be found in the LICENSE file
  15:Drivers/STM32U5xx_HAL_Driver/Src/stm32u5xx_hal.c ****   * in the root directory of this software component.
  16:Drivers/STM32U5xx_HAL_Driver/Src/stm32u5xx_hal.c ****   * If no LICENSE file comes with this software, it is provided AS-IS.
  17:Drivers/STM32U5xx_HAL_Driver/Src/stm32u5xx_hal.c ****   *
  18:Drivers/STM32U5xx_HAL_Driver/Src/stm32u5xx_hal.c ****   ******************************************************************************
  19:Drivers/STM32U5xx_HAL_Driver/Src/stm32u5xx_hal.c ****   @verbatim
  20:Drivers/STM32U5xx_HAL_Driver/Src/stm32u5xx_hal.c ****   ==============================================================================
  21:Drivers/STM32U5xx_HAL_Driver/Src/stm32u5xx_hal.c ****                      ##### How to use this driver #####
  22:Drivers/STM32U5xx_HAL_Driver/Src/stm32u5xx_hal.c ****   ==============================================================================
  23:Drivers/STM32U5xx_HAL_Driver/Src/stm32u5xx_hal.c ****     [..]
  24:Drivers/STM32U5xx_HAL_Driver/Src/stm32u5xx_hal.c ****     The common HAL driver contains a set of generic and common APIs that can be
  25:Drivers/STM32U5xx_HAL_Driver/Src/stm32u5xx_hal.c ****     used by the PPP peripheral drivers and the user to start using the HAL.
  26:Drivers/STM32U5xx_HAL_Driver/Src/stm32u5xx_hal.c ****     [..]
  27:Drivers/STM32U5xx_HAL_Driver/Src/stm32u5xx_hal.c ****     The HAL contains two APIs' categories:
  28:Drivers/STM32U5xx_HAL_Driver/Src/stm32u5xx_hal.c ****          (+) Common HAL APIs
  29:Drivers/STM32U5xx_HAL_Driver/Src/stm32u5xx_hal.c ****          (+) Services HAL APIs
ARM GAS  /tmp/ccEI086O.s 			page 2


  30:Drivers/STM32U5xx_HAL_Driver/Src/stm32u5xx_hal.c **** 
  31:Drivers/STM32U5xx_HAL_Driver/Src/stm32u5xx_hal.c ****   @endverbatim
  32:Drivers/STM32U5xx_HAL_Driver/Src/stm32u5xx_hal.c ****   ******************************************************************************
  33:Drivers/STM32U5xx_HAL_Driver/Src/stm32u5xx_hal.c ****   */
  34:Drivers/STM32U5xx_HAL_Driver/Src/stm32u5xx_hal.c **** 
  35:Drivers/STM32U5xx_HAL_Driver/Src/stm32u5xx_hal.c **** /* Includes ------------------------------------------------------------------*/
  36:Drivers/STM32U5xx_HAL_Driver/Src/stm32u5xx_hal.c **** #include "stm32u5xx_hal.h"
  37:Drivers/STM32U5xx_HAL_Driver/Src/stm32u5xx_hal.c **** 
  38:Drivers/STM32U5xx_HAL_Driver/Src/stm32u5xx_hal.c **** /** @addtogroup STM32U5xx_HAL_Driver
  39:Drivers/STM32U5xx_HAL_Driver/Src/stm32u5xx_hal.c ****   * @{
  40:Drivers/STM32U5xx_HAL_Driver/Src/stm32u5xx_hal.c ****   */
  41:Drivers/STM32U5xx_HAL_Driver/Src/stm32u5xx_hal.c **** 
  42:Drivers/STM32U5xx_HAL_Driver/Src/stm32u5xx_hal.c **** /** @defgroup HAL HAL
  43:Drivers/STM32U5xx_HAL_Driver/Src/stm32u5xx_hal.c ****   * @brief HAL module driver
  44:Drivers/STM32U5xx_HAL_Driver/Src/stm32u5xx_hal.c ****   * @{
  45:Drivers/STM32U5xx_HAL_Driver/Src/stm32u5xx_hal.c ****   */
  46:Drivers/STM32U5xx_HAL_Driver/Src/stm32u5xx_hal.c **** 
  47:Drivers/STM32U5xx_HAL_Driver/Src/stm32u5xx_hal.c **** #ifdef HAL_MODULE_ENABLED
  48:Drivers/STM32U5xx_HAL_Driver/Src/stm32u5xx_hal.c **** 
  49:Drivers/STM32U5xx_HAL_Driver/Src/stm32u5xx_hal.c **** /* Private typedef -----------------------------------------------------------*/
  50:Drivers/STM32U5xx_HAL_Driver/Src/stm32u5xx_hal.c **** /* Private define ------------------------------------------------------------*/
  51:Drivers/STM32U5xx_HAL_Driver/Src/stm32u5xx_hal.c **** /** @defgroup HAL_Private_Defines HAL Private Defines
  52:Drivers/STM32U5xx_HAL_Driver/Src/stm32u5xx_hal.c ****   * @{
  53:Drivers/STM32U5xx_HAL_Driver/Src/stm32u5xx_hal.c ****   */
  54:Drivers/STM32U5xx_HAL_Driver/Src/stm32u5xx_hal.c **** /**
  55:Drivers/STM32U5xx_HAL_Driver/Src/stm32u5xx_hal.c ****   * @brief STM32U5xx HAL Driver version number 1.6.0
  56:Drivers/STM32U5xx_HAL_Driver/Src/stm32u5xx_hal.c ****    */
  57:Drivers/STM32U5xx_HAL_Driver/Src/stm32u5xx_hal.c **** #define __STM32U5xx_HAL_VERSION_MAIN   (0x01U) /*!< [31:24] main version */
  58:Drivers/STM32U5xx_HAL_Driver/Src/stm32u5xx_hal.c **** #define __STM32U5xx_HAL_VERSION_SUB1   (0x06U) /*!< [23:16] sub1 version */
  59:Drivers/STM32U5xx_HAL_Driver/Src/stm32u5xx_hal.c **** #define __STM32U5xx_HAL_VERSION_SUB2   (0x00U) /*!< [15:8]  sub2 version */
  60:Drivers/STM32U5xx_HAL_Driver/Src/stm32u5xx_hal.c **** #define __STM32U5xx_HAL_VERSION_RC     (0x00U) /*!< [7:0]  release candidate */
  61:Drivers/STM32U5xx_HAL_Driver/Src/stm32u5xx_hal.c **** #define __STM32U5xx_HAL_VERSION         ((__STM32U5xx_HAL_VERSION_MAIN << 24U)\
  62:Drivers/STM32U5xx_HAL_Driver/Src/stm32u5xx_hal.c ****                                          |(__STM32U5xx_HAL_VERSION_SUB1 << 16U)\
  63:Drivers/STM32U5xx_HAL_Driver/Src/stm32u5xx_hal.c ****                                          |(__STM32U5xx_HAL_VERSION_SUB2 << 8U )\
  64:Drivers/STM32U5xx_HAL_Driver/Src/stm32u5xx_hal.c ****                                          |(__STM32U5xx_HAL_VERSION_RC))
  65:Drivers/STM32U5xx_HAL_Driver/Src/stm32u5xx_hal.c **** 
  66:Drivers/STM32U5xx_HAL_Driver/Src/stm32u5xx_hal.c **** #define VREFBUF_TIMEOUT_VALUE           10U   /* 10 ms (to be confirmed) */
  67:Drivers/STM32U5xx_HAL_Driver/Src/stm32u5xx_hal.c **** /**
  68:Drivers/STM32U5xx_HAL_Driver/Src/stm32u5xx_hal.c ****   * @}
  69:Drivers/STM32U5xx_HAL_Driver/Src/stm32u5xx_hal.c ****   */
  70:Drivers/STM32U5xx_HAL_Driver/Src/stm32u5xx_hal.c **** /* Private macro -------------------------------------------------------------*/
  71:Drivers/STM32U5xx_HAL_Driver/Src/stm32u5xx_hal.c **** /* Private variables ---------------------------------------------------------*/
  72:Drivers/STM32U5xx_HAL_Driver/Src/stm32u5xx_hal.c **** /* Exported variables --------------------------------------------------------*/
  73:Drivers/STM32U5xx_HAL_Driver/Src/stm32u5xx_hal.c **** 
  74:Drivers/STM32U5xx_HAL_Driver/Src/stm32u5xx_hal.c **** /** @defgroup HAL_Exported_Variables HAL Exported Variables
  75:Drivers/STM32U5xx_HAL_Driver/Src/stm32u5xx_hal.c ****   * @{
  76:Drivers/STM32U5xx_HAL_Driver/Src/stm32u5xx_hal.c ****   */
  77:Drivers/STM32U5xx_HAL_Driver/Src/stm32u5xx_hal.c **** __IO uint32_t uwTick;
  78:Drivers/STM32U5xx_HAL_Driver/Src/stm32u5xx_hal.c **** uint32_t uwTickPrio   = (1UL << __NVIC_PRIO_BITS); /* Invalid PRIO */
  79:Drivers/STM32U5xx_HAL_Driver/Src/stm32u5xx_hal.c **** HAL_TickFreqTypeDef uwTickFreq = HAL_TICK_FREQ_DEFAULT;  /* 1KHz */
  80:Drivers/STM32U5xx_HAL_Driver/Src/stm32u5xx_hal.c **** /**
  81:Drivers/STM32U5xx_HAL_Driver/Src/stm32u5xx_hal.c ****   * @}
  82:Drivers/STM32U5xx_HAL_Driver/Src/stm32u5xx_hal.c ****   */
  83:Drivers/STM32U5xx_HAL_Driver/Src/stm32u5xx_hal.c **** 
  84:Drivers/STM32U5xx_HAL_Driver/Src/stm32u5xx_hal.c **** /* Private function prototypes -----------------------------------------------*/
  85:Drivers/STM32U5xx_HAL_Driver/Src/stm32u5xx_hal.c **** /* Exported functions --------------------------------------------------------*/
  86:Drivers/STM32U5xx_HAL_Driver/Src/stm32u5xx_hal.c **** 
ARM GAS  /tmp/ccEI086O.s 			page 3


  87:Drivers/STM32U5xx_HAL_Driver/Src/stm32u5xx_hal.c **** /** @defgroup HAL_Exported_Functions HAL Exported Functions
  88:Drivers/STM32U5xx_HAL_Driver/Src/stm32u5xx_hal.c ****   * @{
  89:Drivers/STM32U5xx_HAL_Driver/Src/stm32u5xx_hal.c ****   */
  90:Drivers/STM32U5xx_HAL_Driver/Src/stm32u5xx_hal.c **** 
  91:Drivers/STM32U5xx_HAL_Driver/Src/stm32u5xx_hal.c **** /** @defgroup HAL_Exported_Functions_Group1 HAL Initialization and de-initialization Functions
  92:Drivers/STM32U5xx_HAL_Driver/Src/stm32u5xx_hal.c ****   *  @brief    Initialization and de-initialization functions
  93:Drivers/STM32U5xx_HAL_Driver/Src/stm32u5xx_hal.c ****   *
  94:Drivers/STM32U5xx_HAL_Driver/Src/stm32u5xx_hal.c **** @verbatim
  95:Drivers/STM32U5xx_HAL_Driver/Src/stm32u5xx_hal.c ****  ===============================================================================
  96:Drivers/STM32U5xx_HAL_Driver/Src/stm32u5xx_hal.c ****               ##### Initialization and de-initialization functions #####
  97:Drivers/STM32U5xx_HAL_Driver/Src/stm32u5xx_hal.c ****  ===============================================================================
  98:Drivers/STM32U5xx_HAL_Driver/Src/stm32u5xx_hal.c ****     [..]  This section provides functions allowing to:
  99:Drivers/STM32U5xx_HAL_Driver/Src/stm32u5xx_hal.c ****       (+) Initializes the Flash interface the NVIC allocation and initial clock
 100:Drivers/STM32U5xx_HAL_Driver/Src/stm32u5xx_hal.c ****           configuration. It initializes the systick also when timeout is needed
 101:Drivers/STM32U5xx_HAL_Driver/Src/stm32u5xx_hal.c ****           and the backup domain when enabled.
 102:Drivers/STM32U5xx_HAL_Driver/Src/stm32u5xx_hal.c ****       (+) De-Initializes common part of the HAL.
 103:Drivers/STM32U5xx_HAL_Driver/Src/stm32u5xx_hal.c ****       (+) Configure The time base source to have 1ms time base with a dedicated
 104:Drivers/STM32U5xx_HAL_Driver/Src/stm32u5xx_hal.c ****           Tick interrupt priority.
 105:Drivers/STM32U5xx_HAL_Driver/Src/stm32u5xx_hal.c ****         (++) SysTick timer is used by default as source of time base, but user
 106:Drivers/STM32U5xx_HAL_Driver/Src/stm32u5xx_hal.c ****              can eventually implement his proper time base source (a general purpose
 107:Drivers/STM32U5xx_HAL_Driver/Src/stm32u5xx_hal.c ****              timer for example or other time source), keeping in mind that Time base
 108:Drivers/STM32U5xx_HAL_Driver/Src/stm32u5xx_hal.c ****              duration should be kept 1ms since PPP_TIMEOUT_VALUEs are defined and
 109:Drivers/STM32U5xx_HAL_Driver/Src/stm32u5xx_hal.c ****              handled in milliseconds basis.
 110:Drivers/STM32U5xx_HAL_Driver/Src/stm32u5xx_hal.c ****         (++) Time base configuration function (HAL_InitTick ()) is called automatically
 111:Drivers/STM32U5xx_HAL_Driver/Src/stm32u5xx_hal.c ****              at the beginning of the program after reset by HAL_Init() or at any time
 112:Drivers/STM32U5xx_HAL_Driver/Src/stm32u5xx_hal.c ****              when clock is configured, by HAL_RCC_ClockConfig().
 113:Drivers/STM32U5xx_HAL_Driver/Src/stm32u5xx_hal.c ****         (++) Source of time base is configured  to generate interrupts at regular
 114:Drivers/STM32U5xx_HAL_Driver/Src/stm32u5xx_hal.c ****              time intervals. Care must be taken if HAL_Delay() is called from a
 115:Drivers/STM32U5xx_HAL_Driver/Src/stm32u5xx_hal.c ****              peripheral ISR process, the Tick interrupt line must have higher priority
 116:Drivers/STM32U5xx_HAL_Driver/Src/stm32u5xx_hal.c ****             (numerically lower) than the peripheral interrupt. Otherwise the caller
 117:Drivers/STM32U5xx_HAL_Driver/Src/stm32u5xx_hal.c ****             ISR process will be blocked.
 118:Drivers/STM32U5xx_HAL_Driver/Src/stm32u5xx_hal.c ****        (++) functions affecting time base configurations are declared as __weak
 119:Drivers/STM32U5xx_HAL_Driver/Src/stm32u5xx_hal.c ****              to make  override possible  in case of other  implementations in user file.
 120:Drivers/STM32U5xx_HAL_Driver/Src/stm32u5xx_hal.c **** @endverbatim
 121:Drivers/STM32U5xx_HAL_Driver/Src/stm32u5xx_hal.c ****   * @{
 122:Drivers/STM32U5xx_HAL_Driver/Src/stm32u5xx_hal.c ****   */
 123:Drivers/STM32U5xx_HAL_Driver/Src/stm32u5xx_hal.c **** 
 124:Drivers/STM32U5xx_HAL_Driver/Src/stm32u5xx_hal.c **** /**
 125:Drivers/STM32U5xx_HAL_Driver/Src/stm32u5xx_hal.c ****   * @brief  Configure the Flash prefetch, the time base source, NVIC and any required global low
 126:Drivers/STM32U5xx_HAL_Driver/Src/stm32u5xx_hal.c ****   *         level hardware by calling the HAL_MspInit() callback function to be optionally defined
 127:Drivers/STM32U5xx_HAL_Driver/Src/stm32u5xx_hal.c ****   *         in user file stm32u5xx_hal_msp.c.
 128:Drivers/STM32U5xx_HAL_Driver/Src/stm32u5xx_hal.c ****   *
 129:Drivers/STM32U5xx_HAL_Driver/Src/stm32u5xx_hal.c ****   * @note   HAL_Init() function is called at the beginning of program after reset and before
 130:Drivers/STM32U5xx_HAL_Driver/Src/stm32u5xx_hal.c ****   *         the clock configuration.
 131:Drivers/STM32U5xx_HAL_Driver/Src/stm32u5xx_hal.c ****   *
 132:Drivers/STM32U5xx_HAL_Driver/Src/stm32u5xx_hal.c ****   * @note   In the default implementation the System Timer (SysTick) is used as source of time base
 133:Drivers/STM32U5xx_HAL_Driver/Src/stm32u5xx_hal.c ****   *         The SysTick configuration is based on MSI clock, as MSI is the clock
 134:Drivers/STM32U5xx_HAL_Driver/Src/stm32u5xx_hal.c ****   *         used after a system Reset and the NVIC configuration is set to Priority group 4.
 135:Drivers/STM32U5xx_HAL_Driver/Src/stm32u5xx_hal.c ****   *         Once done, time base tick starts incrementing: the tick variable counter is incremented
 136:Drivers/STM32U5xx_HAL_Driver/Src/stm32u5xx_hal.c ****   *         each 1ms in the SysTick_Handler() interrupt handler.
 137:Drivers/STM32U5xx_HAL_Driver/Src/stm32u5xx_hal.c ****   *
 138:Drivers/STM32U5xx_HAL_Driver/Src/stm32u5xx_hal.c ****   * @retval HAL status
 139:Drivers/STM32U5xx_HAL_Driver/Src/stm32u5xx_hal.c ****   */
 140:Drivers/STM32U5xx_HAL_Driver/Src/stm32u5xx_hal.c **** HAL_StatusTypeDef HAL_Init(void)
 141:Drivers/STM32U5xx_HAL_Driver/Src/stm32u5xx_hal.c **** {
 142:Drivers/STM32U5xx_HAL_Driver/Src/stm32u5xx_hal.c ****   /* Configure Flash prefetch */
 143:Drivers/STM32U5xx_HAL_Driver/Src/stm32u5xx_hal.c **** #if (PREFETCH_ENABLE != 0U)
ARM GAS  /tmp/ccEI086O.s 			page 4


 144:Drivers/STM32U5xx_HAL_Driver/Src/stm32u5xx_hal.c ****   __HAL_FLASH_PREFETCH_BUFFER_ENABLE();
 145:Drivers/STM32U5xx_HAL_Driver/Src/stm32u5xx_hal.c **** #endif /* PREFETCH_ENABLE */
 146:Drivers/STM32U5xx_HAL_Driver/Src/stm32u5xx_hal.c **** 
 147:Drivers/STM32U5xx_HAL_Driver/Src/stm32u5xx_hal.c ****   /* Set Interrupt Group Priority */
 148:Drivers/STM32U5xx_HAL_Driver/Src/stm32u5xx_hal.c ****   HAL_NVIC_SetPriorityGrouping(NVIC_PRIORITYGROUP_4);
 149:Drivers/STM32U5xx_HAL_Driver/Src/stm32u5xx_hal.c **** 
 150:Drivers/STM32U5xx_HAL_Driver/Src/stm32u5xx_hal.c ****   /* Update the SystemCoreClock global variable */
 151:Drivers/STM32U5xx_HAL_Driver/Src/stm32u5xx_hal.c ****   SystemCoreClock = HAL_RCC_GetSysClockFreq() >> AHBPrescTable[(RCC->CFGR2 & RCC_CFGR2_HPRE) >> RCC
 152:Drivers/STM32U5xx_HAL_Driver/Src/stm32u5xx_hal.c **** 
 153:Drivers/STM32U5xx_HAL_Driver/Src/stm32u5xx_hal.c ****   /* Select HCLK as SysTick clock source */
 154:Drivers/STM32U5xx_HAL_Driver/Src/stm32u5xx_hal.c ****   HAL_SYSTICK_CLKSourceConfig(SYSTICK_CLKSOURCE_HCLK);
 155:Drivers/STM32U5xx_HAL_Driver/Src/stm32u5xx_hal.c **** 
 156:Drivers/STM32U5xx_HAL_Driver/Src/stm32u5xx_hal.c ****   /* Use systick as time base source and configure 1ms tick (default clock after Reset is HSI) */
 157:Drivers/STM32U5xx_HAL_Driver/Src/stm32u5xx_hal.c ****   if (HAL_InitTick(TICK_INT_PRIORITY) != HAL_OK)
 158:Drivers/STM32U5xx_HAL_Driver/Src/stm32u5xx_hal.c ****   {
 159:Drivers/STM32U5xx_HAL_Driver/Src/stm32u5xx_hal.c ****     return HAL_ERROR;
 160:Drivers/STM32U5xx_HAL_Driver/Src/stm32u5xx_hal.c ****   }
 161:Drivers/STM32U5xx_HAL_Driver/Src/stm32u5xx_hal.c **** 
 162:Drivers/STM32U5xx_HAL_Driver/Src/stm32u5xx_hal.c ****   /* Init the low level hardware */
 163:Drivers/STM32U5xx_HAL_Driver/Src/stm32u5xx_hal.c ****   HAL_MspInit();
 164:Drivers/STM32U5xx_HAL_Driver/Src/stm32u5xx_hal.c **** 
 165:Drivers/STM32U5xx_HAL_Driver/Src/stm32u5xx_hal.c ****   /* Return function status */
 166:Drivers/STM32U5xx_HAL_Driver/Src/stm32u5xx_hal.c ****   return HAL_OK;
 167:Drivers/STM32U5xx_HAL_Driver/Src/stm32u5xx_hal.c **** }
 168:Drivers/STM32U5xx_HAL_Driver/Src/stm32u5xx_hal.c **** 
 169:Drivers/STM32U5xx_HAL_Driver/Src/stm32u5xx_hal.c **** /**
 170:Drivers/STM32U5xx_HAL_Driver/Src/stm32u5xx_hal.c ****   * @brief  This function de-Initializes common part of the HAL and stops the systick.
 171:Drivers/STM32U5xx_HAL_Driver/Src/stm32u5xx_hal.c ****   *         This function is optional.
 172:Drivers/STM32U5xx_HAL_Driver/Src/stm32u5xx_hal.c ****   * @retval HAL status
 173:Drivers/STM32U5xx_HAL_Driver/Src/stm32u5xx_hal.c ****   */
 174:Drivers/STM32U5xx_HAL_Driver/Src/stm32u5xx_hal.c **** HAL_StatusTypeDef HAL_DeInit(void)
 175:Drivers/STM32U5xx_HAL_Driver/Src/stm32u5xx_hal.c **** {
 176:Drivers/STM32U5xx_HAL_Driver/Src/stm32u5xx_hal.c ****   /* Reset of all peripherals */
 177:Drivers/STM32U5xx_HAL_Driver/Src/stm32u5xx_hal.c ****   __HAL_RCC_APB1_FORCE_RESET();
 178:Drivers/STM32U5xx_HAL_Driver/Src/stm32u5xx_hal.c ****   __HAL_RCC_APB1_RELEASE_RESET();
 179:Drivers/STM32U5xx_HAL_Driver/Src/stm32u5xx_hal.c **** 
 180:Drivers/STM32U5xx_HAL_Driver/Src/stm32u5xx_hal.c ****   __HAL_RCC_APB2_FORCE_RESET();
 181:Drivers/STM32U5xx_HAL_Driver/Src/stm32u5xx_hal.c ****   __HAL_RCC_APB2_RELEASE_RESET();
 182:Drivers/STM32U5xx_HAL_Driver/Src/stm32u5xx_hal.c **** 
 183:Drivers/STM32U5xx_HAL_Driver/Src/stm32u5xx_hal.c ****   __HAL_RCC_AHB1_FORCE_RESET();
 184:Drivers/STM32U5xx_HAL_Driver/Src/stm32u5xx_hal.c ****   __HAL_RCC_AHB1_RELEASE_RESET();
 185:Drivers/STM32U5xx_HAL_Driver/Src/stm32u5xx_hal.c **** 
 186:Drivers/STM32U5xx_HAL_Driver/Src/stm32u5xx_hal.c ****   __HAL_RCC_AHB2_FORCE_RESET();
 187:Drivers/STM32U5xx_HAL_Driver/Src/stm32u5xx_hal.c ****   __HAL_RCC_AHB2_RELEASE_RESET();
 188:Drivers/STM32U5xx_HAL_Driver/Src/stm32u5xx_hal.c **** 
 189:Drivers/STM32U5xx_HAL_Driver/Src/stm32u5xx_hal.c ****   __HAL_RCC_AHB3_FORCE_RESET();
 190:Drivers/STM32U5xx_HAL_Driver/Src/stm32u5xx_hal.c ****   __HAL_RCC_AHB3_RELEASE_RESET();
 191:Drivers/STM32U5xx_HAL_Driver/Src/stm32u5xx_hal.c **** 
 192:Drivers/STM32U5xx_HAL_Driver/Src/stm32u5xx_hal.c ****   /* De-Init the low level hardware */
 193:Drivers/STM32U5xx_HAL_Driver/Src/stm32u5xx_hal.c ****   HAL_MspDeInit();
 194:Drivers/STM32U5xx_HAL_Driver/Src/stm32u5xx_hal.c **** 
 195:Drivers/STM32U5xx_HAL_Driver/Src/stm32u5xx_hal.c ****   /* Return function status */
 196:Drivers/STM32U5xx_HAL_Driver/Src/stm32u5xx_hal.c ****   return HAL_OK;
 197:Drivers/STM32U5xx_HAL_Driver/Src/stm32u5xx_hal.c **** }
 198:Drivers/STM32U5xx_HAL_Driver/Src/stm32u5xx_hal.c **** 
 199:Drivers/STM32U5xx_HAL_Driver/Src/stm32u5xx_hal.c **** /**
 200:Drivers/STM32U5xx_HAL_Driver/Src/stm32u5xx_hal.c ****   * @brief  Initializes the MSP.
ARM GAS  /tmp/ccEI086O.s 			page 5


 201:Drivers/STM32U5xx_HAL_Driver/Src/stm32u5xx_hal.c ****   * @retval None
 202:Drivers/STM32U5xx_HAL_Driver/Src/stm32u5xx_hal.c ****   */
 203:Drivers/STM32U5xx_HAL_Driver/Src/stm32u5xx_hal.c **** __weak void HAL_MspInit(void)
 204:Drivers/STM32U5xx_HAL_Driver/Src/stm32u5xx_hal.c **** {
  30              		.loc 1 204 1 view -0
  31              		.cfi_startproc
  32              		@ args = 0, pretend = 0, frame = 0
  33              		@ frame_needed = 0, uses_anonymous_args = 0
  34              		@ link register save eliminated.
 205:Drivers/STM32U5xx_HAL_Driver/Src/stm32u5xx_hal.c ****   /* NOTE : This function Should not be modified, when the callback is needed,
 206:Drivers/STM32U5xx_HAL_Driver/Src/stm32u5xx_hal.c ****             the HAL_MspInit could be implemented in the user file
 207:Drivers/STM32U5xx_HAL_Driver/Src/stm32u5xx_hal.c ****    */
 208:Drivers/STM32U5xx_HAL_Driver/Src/stm32u5xx_hal.c **** }
  35              		.loc 1 208 1 view .LVU1
  36 0000 7047     		bx	lr
  37              		.cfi_endproc
  38              	.LFE159:
  40              		.section	.text.HAL_MspDeInit,"ax",%progbits
  41              		.align	1
  42              		.weak	HAL_MspDeInit
  43              		.syntax unified
  44              		.thumb
  45              		.thumb_func
  47              	HAL_MspDeInit:
  48              	.LFB160:
 209:Drivers/STM32U5xx_HAL_Driver/Src/stm32u5xx_hal.c **** 
 210:Drivers/STM32U5xx_HAL_Driver/Src/stm32u5xx_hal.c **** /**
 211:Drivers/STM32U5xx_HAL_Driver/Src/stm32u5xx_hal.c ****   * @brief  DeInitializes the MSP.
 212:Drivers/STM32U5xx_HAL_Driver/Src/stm32u5xx_hal.c ****   * @retval None
 213:Drivers/STM32U5xx_HAL_Driver/Src/stm32u5xx_hal.c ****   */
 214:Drivers/STM32U5xx_HAL_Driver/Src/stm32u5xx_hal.c **** __weak void HAL_MspDeInit(void)
 215:Drivers/STM32U5xx_HAL_Driver/Src/stm32u5xx_hal.c **** {
  49              		.loc 1 215 1 view -0
  50              		.cfi_startproc
  51              		@ args = 0, pretend = 0, frame = 0
  52              		@ frame_needed = 0, uses_anonymous_args = 0
  53              		@ link register save eliminated.
 216:Drivers/STM32U5xx_HAL_Driver/Src/stm32u5xx_hal.c ****   /* NOTE : This function Should not be modified, when the callback is needed,
 217:Drivers/STM32U5xx_HAL_Driver/Src/stm32u5xx_hal.c ****             the HAL_MspDeInit could be implemented in the user file
 218:Drivers/STM32U5xx_HAL_Driver/Src/stm32u5xx_hal.c ****    */
 219:Drivers/STM32U5xx_HAL_Driver/Src/stm32u5xx_hal.c **** }
  54              		.loc 1 219 1 view .LVU3
  55 0000 7047     		bx	lr
  56              		.cfi_endproc
  57              	.LFE160:
  59              		.section	.text.HAL_DeInit,"ax",%progbits
  60              		.align	1
  61              		.global	HAL_DeInit
  62              		.syntax unified
  63              		.thumb
  64              		.thumb_func
  66              	HAL_DeInit:
  67              	.LFB158:
 175:Drivers/STM32U5xx_HAL_Driver/Src/stm32u5xx_hal.c ****   /* Reset of all peripherals */
  68              		.loc 1 175 1 view -0
  69              		.cfi_startproc
  70              		@ args = 0, pretend = 0, frame = 0
ARM GAS  /tmp/ccEI086O.s 			page 6


  71              		@ frame_needed = 0, uses_anonymous_args = 0
  72 0000 10B5     		push	{r4, lr}
  73              	.LCFI0:
  74              		.cfi_def_cfa_offset 8
  75              		.cfi_offset 4, -8
  76              		.cfi_offset 14, -4
 177:Drivers/STM32U5xx_HAL_Driver/Src/stm32u5xx_hal.c ****   __HAL_RCC_APB1_RELEASE_RESET();
  77              		.loc 1 177 3 view .LVU5
 177:Drivers/STM32U5xx_HAL_Driver/Src/stm32u5xx_hal.c ****   __HAL_RCC_APB1_RELEASE_RESET();
  78              		.loc 1 177 3 view .LVU6
  79 0002 0E4B     		ldr	r3, .L5
  80 0004 0E4A     		ldr	r2, .L5+4
  81 0006 5A67     		str	r2, [r3, #116]
 177:Drivers/STM32U5xx_HAL_Driver/Src/stm32u5xx_hal.c ****   __HAL_RCC_APB1_RELEASE_RESET();
  82              		.loc 1 177 3 view .LVU7
  83 0008 0E4A     		ldr	r2, .L5+8
  84 000a 9A67     		str	r2, [r3, #120]
 177:Drivers/STM32U5xx_HAL_Driver/Src/stm32u5xx_hal.c ****   __HAL_RCC_APB1_RELEASE_RESET();
  85              		.loc 1 177 3 view .LVU8
 178:Drivers/STM32U5xx_HAL_Driver/Src/stm32u5xx_hal.c **** 
  86              		.loc 1 178 3 view .LVU9
 178:Drivers/STM32U5xx_HAL_Driver/Src/stm32u5xx_hal.c **** 
  87              		.loc 1 178 3 view .LVU10
  88 000c 0024     		movs	r4, #0
  89 000e 5C67     		str	r4, [r3, #116]
 178:Drivers/STM32U5xx_HAL_Driver/Src/stm32u5xx_hal.c **** 
  90              		.loc 1 178 3 view .LVU11
  91 0010 9C67     		str	r4, [r3, #120]
 178:Drivers/STM32U5xx_HAL_Driver/Src/stm32u5xx_hal.c **** 
  92              		.loc 1 178 3 view .LVU12
 180:Drivers/STM32U5xx_HAL_Driver/Src/stm32u5xx_hal.c ****   __HAL_RCC_APB2_RELEASE_RESET();
  93              		.loc 1 180 3 view .LVU13
  94 0012 0D4A     		ldr	r2, .L5+12
  95 0014 DA67     		str	r2, [r3, #124]
 181:Drivers/STM32U5xx_HAL_Driver/Src/stm32u5xx_hal.c **** 
  96              		.loc 1 181 3 view .LVU14
  97 0016 DC67     		str	r4, [r3, #124]
 183:Drivers/STM32U5xx_HAL_Driver/Src/stm32u5xx_hal.c ****   __HAL_RCC_AHB1_RELEASE_RESET();
  98              		.loc 1 183 3 view .LVU15
  99 0018 0C4A     		ldr	r2, .L5+16
 100 001a 1A66     		str	r2, [r3, #96]
 184:Drivers/STM32U5xx_HAL_Driver/Src/stm32u5xx_hal.c **** 
 101              		.loc 1 184 3 view .LVU16
 102 001c 1C66     		str	r4, [r3, #96]
 186:Drivers/STM32U5xx_HAL_Driver/Src/stm32u5xx_hal.c ****   __HAL_RCC_AHB2_RELEASE_RESET();
 103              		.loc 1 186 3 view .LVU17
 186:Drivers/STM32U5xx_HAL_Driver/Src/stm32u5xx_hal.c ****   __HAL_RCC_AHB2_RELEASE_RESET();
 104              		.loc 1 186 3 view .LVU18
 105 001e 0C4A     		ldr	r2, .L5+20
 106 0020 5A66     		str	r2, [r3, #100]
 186:Drivers/STM32U5xx_HAL_Driver/Src/stm32u5xx_hal.c ****   __HAL_RCC_AHB2_RELEASE_RESET();
 107              		.loc 1 186 3 view .LVU19
 108 0022 40F21112 		movw	r2, #273
 109 0026 9A66     		str	r2, [r3, #104]
 186:Drivers/STM32U5xx_HAL_Driver/Src/stm32u5xx_hal.c ****   __HAL_RCC_AHB2_RELEASE_RESET();
 110              		.loc 1 186 3 view .LVU20
 187:Drivers/STM32U5xx_HAL_Driver/Src/stm32u5xx_hal.c **** 
ARM GAS  /tmp/ccEI086O.s 			page 7


 111              		.loc 1 187 3 view .LVU21
 187:Drivers/STM32U5xx_HAL_Driver/Src/stm32u5xx_hal.c **** 
 112              		.loc 1 187 3 view .LVU22
 113 0028 5C66     		str	r4, [r3, #100]
 187:Drivers/STM32U5xx_HAL_Driver/Src/stm32u5xx_hal.c **** 
 114              		.loc 1 187 3 view .LVU23
 115 002a 9C66     		str	r4, [r3, #104]
 187:Drivers/STM32U5xx_HAL_Driver/Src/stm32u5xx_hal.c **** 
 116              		.loc 1 187 3 view .LVU24
 189:Drivers/STM32U5xx_HAL_Driver/Src/stm32u5xx_hal.c ****   __HAL_RCC_AHB3_RELEASE_RESET();
 117              		.loc 1 189 3 view .LVU25
 118 002c 40F26162 		movw	r2, #1633
 119 0030 DA66     		str	r2, [r3, #108]
 190:Drivers/STM32U5xx_HAL_Driver/Src/stm32u5xx_hal.c **** 
 120              		.loc 1 190 3 view .LVU26
 121 0032 DC66     		str	r4, [r3, #108]
 193:Drivers/STM32U5xx_HAL_Driver/Src/stm32u5xx_hal.c **** 
 122              		.loc 1 193 3 view .LVU27
 123 0034 FFF7FEFF 		bl	HAL_MspDeInit
 124              	.LVL0:
 196:Drivers/STM32U5xx_HAL_Driver/Src/stm32u5xx_hal.c **** }
 125              		.loc 1 196 3 view .LVU28
 197:Drivers/STM32U5xx_HAL_Driver/Src/stm32u5xx_hal.c **** 
 126              		.loc 1 197 1 is_stmt 0 view .LVU29
 127 0038 2046     		mov	r0, r4
 128 003a 10BD     		pop	{r4, pc}
 129              	.L6:
 130              		.align	2
 131              	.L5:
 132 003c 000C0246 		.word	1174539264
 133 0040 3F407E02 		.word	41828415
 134 0044 22028000 		.word	8389154
 135 0048 00786700 		.word	6780928
 136 004c 0F100700 		.word	462863
 137 0050 FF55BF19 		.word	431969791
 138              		.cfi_endproc
 139              	.LFE158:
 141              		.section	.text.HAL_InitTick,"ax",%progbits
 142              		.align	1
 143              		.weak	HAL_InitTick
 144              		.syntax unified
 145              		.thumb
 146              		.thumb_func
 148              	HAL_InitTick:
 149              	.LVL1:
 150              	.LFB161:
 220:Drivers/STM32U5xx_HAL_Driver/Src/stm32u5xx_hal.c **** 
 221:Drivers/STM32U5xx_HAL_Driver/Src/stm32u5xx_hal.c **** /**
 222:Drivers/STM32U5xx_HAL_Driver/Src/stm32u5xx_hal.c ****   * @brief This function configures the source of the time base.
 223:Drivers/STM32U5xx_HAL_Driver/Src/stm32u5xx_hal.c ****   *        The time source is configured to have 1ms time base with a dedicated
 224:Drivers/STM32U5xx_HAL_Driver/Src/stm32u5xx_hal.c ****   *        Tick interrupt priority.
 225:Drivers/STM32U5xx_HAL_Driver/Src/stm32u5xx_hal.c ****   * @note This function is called  automatically at the beginning of program after
 226:Drivers/STM32U5xx_HAL_Driver/Src/stm32u5xx_hal.c ****   *       reset by HAL_Init() or at any time when clock is reconfigured  by HAL_RCC_ClockConfig().
 227:Drivers/STM32U5xx_HAL_Driver/Src/stm32u5xx_hal.c ****   * @note In the default implementation, SysTick timer is the source of time base.
 228:Drivers/STM32U5xx_HAL_Driver/Src/stm32u5xx_hal.c ****   *       It is used to generate interrupts at regular time intervals.
 229:Drivers/STM32U5xx_HAL_Driver/Src/stm32u5xx_hal.c ****   *       Care must be taken if HAL_Delay() is called from a peripheral ISR process,
 230:Drivers/STM32U5xx_HAL_Driver/Src/stm32u5xx_hal.c ****   *       The SysTick interrupt must have higher priority (numerically lower)
ARM GAS  /tmp/ccEI086O.s 			page 8


 231:Drivers/STM32U5xx_HAL_Driver/Src/stm32u5xx_hal.c ****   *       than the peripheral interrupt. Otherwise the caller ISR process will be blocked.
 232:Drivers/STM32U5xx_HAL_Driver/Src/stm32u5xx_hal.c ****   *       The function is declared as __weak  to be overwritten  in case of other
 233:Drivers/STM32U5xx_HAL_Driver/Src/stm32u5xx_hal.c ****   *       implementation  in user file.
 234:Drivers/STM32U5xx_HAL_Driver/Src/stm32u5xx_hal.c ****   * @param TickPriority: Tick interrupt priority.
 235:Drivers/STM32U5xx_HAL_Driver/Src/stm32u5xx_hal.c ****   * @retval HAL status
 236:Drivers/STM32U5xx_HAL_Driver/Src/stm32u5xx_hal.c ****   */
 237:Drivers/STM32U5xx_HAL_Driver/Src/stm32u5xx_hal.c **** __weak HAL_StatusTypeDef HAL_InitTick(uint32_t TickPriority)
 238:Drivers/STM32U5xx_HAL_Driver/Src/stm32u5xx_hal.c **** {
 151              		.loc 1 238 1 is_stmt 1 view -0
 152              		.cfi_startproc
 153              		@ args = 0, pretend = 0, frame = 0
 154              		@ frame_needed = 0, uses_anonymous_args = 0
 155              		.loc 1 238 1 is_stmt 0 view .LVU31
 156 0000 38B5     		push	{r3, r4, r5, lr}
 157              	.LCFI1:
 158              		.cfi_def_cfa_offset 16
 159              		.cfi_offset 3, -16
 160              		.cfi_offset 4, -12
 161              		.cfi_offset 5, -8
 162              		.cfi_offset 14, -4
 239:Drivers/STM32U5xx_HAL_Driver/Src/stm32u5xx_hal.c ****   uint32_t ticknumber = 0U;
 163              		.loc 1 239 3 is_stmt 1 view .LVU32
 164              	.LVL2:
 240:Drivers/STM32U5xx_HAL_Driver/Src/stm32u5xx_hal.c ****   uint32_t systicksel;
 165              		.loc 1 240 3 view .LVU33
 241:Drivers/STM32U5xx_HAL_Driver/Src/stm32u5xx_hal.c **** 
 242:Drivers/STM32U5xx_HAL_Driver/Src/stm32u5xx_hal.c ****   /* Check uwTickFreq for MisraC 2012 (even if uwTickFreq is a enum type that don't take the value 
 243:Drivers/STM32U5xx_HAL_Driver/Src/stm32u5xx_hal.c ****   if ((uint32_t)uwTickFreq == 0UL)
 166              		.loc 1 243 3 view .LVU34
 167              		.loc 1 243 28 is_stmt 0 view .LVU35
 168 0002 274B     		ldr	r3, .L17
 169 0004 1A78     		ldrb	r2, [r3]	@ zero_extendqisi2
 170              		.loc 1 243 6 view .LVU36
 171 0006 002A     		cmp	r2, #0
 172 0008 47D0     		beq	.L13
 173 000a 0546     		mov	r5, r0
 244:Drivers/STM32U5xx_HAL_Driver/Src/stm32u5xx_hal.c ****   {
 245:Drivers/STM32U5xx_HAL_Driver/Src/stm32u5xx_hal.c ****     return HAL_ERROR;
 246:Drivers/STM32U5xx_HAL_Driver/Src/stm32u5xx_hal.c ****   }
 247:Drivers/STM32U5xx_HAL_Driver/Src/stm32u5xx_hal.c **** 
 248:Drivers/STM32U5xx_HAL_Driver/Src/stm32u5xx_hal.c ****   /* Check Clock source to calculate the tickNumber */
 249:Drivers/STM32U5xx_HAL_Driver/Src/stm32u5xx_hal.c ****   if (READ_BIT(SysTick->CTRL, SysTick_CTRL_CLKSOURCE_Msk) == SysTick_CTRL_CLKSOURCE_Msk)
 174              		.loc 1 249 3 is_stmt 1 view .LVU37
 175              		.loc 1 249 7 is_stmt 0 view .LVU38
 176 000c 4FF0E023 		mov	r3, #-536813568
 177 0010 1C69     		ldr	r4, [r3, #16]
 178              		.loc 1 249 6 view .LVU39
 179 0012 14F00404 		ands	r4, r4, #4
 180 0016 0DD0     		beq	.L9
 250:Drivers/STM32U5xx_HAL_Driver/Src/stm32u5xx_hal.c ****   {
 251:Drivers/STM32U5xx_HAL_Driver/Src/stm32u5xx_hal.c ****     /* HCLK selected as SysTick clock source */
 252:Drivers/STM32U5xx_HAL_Driver/Src/stm32u5xx_hal.c ****     ticknumber = SystemCoreClock / (1000UL / (uint32_t)uwTickFreq);
 181              		.loc 1 252 5 is_stmt 1 view .LVU40
 182              		.loc 1 252 34 is_stmt 0 view .LVU41
 183 0018 224B     		ldr	r3, .L17+4
 184 001a 1C68     		ldr	r4, [r3]
 185              		.loc 1 252 44 view .LVU42
ARM GAS  /tmp/ccEI086O.s 			page 9


 186 001c 4FF47A71 		mov	r1, #1000
 187 0020 B1FBF2F2 		udiv	r2, r1, r2
 188              		.loc 1 252 16 view .LVU43
 189 0024 B4FBF2F4 		udiv	r4, r4, r2
 190              	.LVL3:
 191              	.L10:
 253:Drivers/STM32U5xx_HAL_Driver/Src/stm32u5xx_hal.c ****   }
 254:Drivers/STM32U5xx_HAL_Driver/Src/stm32u5xx_hal.c ****   else
 255:Drivers/STM32U5xx_HAL_Driver/Src/stm32u5xx_hal.c ****   {
 256:Drivers/STM32U5xx_HAL_Driver/Src/stm32u5xx_hal.c ****     systicksel = HAL_SYSTICK_GetCLKSourceConfig();
 257:Drivers/STM32U5xx_HAL_Driver/Src/stm32u5xx_hal.c ****     switch (systicksel)
 258:Drivers/STM32U5xx_HAL_Driver/Src/stm32u5xx_hal.c ****     {
 259:Drivers/STM32U5xx_HAL_Driver/Src/stm32u5xx_hal.c ****       /* HCLK_DIV8 selected as SysTick clock source */
 260:Drivers/STM32U5xx_HAL_Driver/Src/stm32u5xx_hal.c ****       case SYSTICK_CLKSOURCE_HCLK_DIV8:
 261:Drivers/STM32U5xx_HAL_Driver/Src/stm32u5xx_hal.c ****         /* Calculate tick value */
 262:Drivers/STM32U5xx_HAL_Driver/Src/stm32u5xx_hal.c ****         ticknumber = (SystemCoreClock / (8000UL / (uint32_t)uwTickFreq));
 263:Drivers/STM32U5xx_HAL_Driver/Src/stm32u5xx_hal.c ****         break;
 264:Drivers/STM32U5xx_HAL_Driver/Src/stm32u5xx_hal.c ****       /* LSI selected as SysTick clock source */
 265:Drivers/STM32U5xx_HAL_Driver/Src/stm32u5xx_hal.c ****       case SYSTICK_CLKSOURCE_LSI:
 266:Drivers/STM32U5xx_HAL_Driver/Src/stm32u5xx_hal.c ****         /* Calculate tick value */
 267:Drivers/STM32U5xx_HAL_Driver/Src/stm32u5xx_hal.c ****         ticknumber = (LSI_VALUE / (1000UL / (uint32_t)uwTickFreq));
 268:Drivers/STM32U5xx_HAL_Driver/Src/stm32u5xx_hal.c ****         break;
 269:Drivers/STM32U5xx_HAL_Driver/Src/stm32u5xx_hal.c ****       /* LSE selected as SysTick clock source */
 270:Drivers/STM32U5xx_HAL_Driver/Src/stm32u5xx_hal.c ****       case SYSTICK_CLKSOURCE_LSE:
 271:Drivers/STM32U5xx_HAL_Driver/Src/stm32u5xx_hal.c ****         /* Calculate tick value */
 272:Drivers/STM32U5xx_HAL_Driver/Src/stm32u5xx_hal.c ****         ticknumber = (LSE_VALUE / (1000UL / (uint32_t)uwTickFreq));
 273:Drivers/STM32U5xx_HAL_Driver/Src/stm32u5xx_hal.c ****         break;
 274:Drivers/STM32U5xx_HAL_Driver/Src/stm32u5xx_hal.c ****       default:
 275:Drivers/STM32U5xx_HAL_Driver/Src/stm32u5xx_hal.c ****         /* Nothing to do */
 276:Drivers/STM32U5xx_HAL_Driver/Src/stm32u5xx_hal.c ****         break;
 277:Drivers/STM32U5xx_HAL_Driver/Src/stm32u5xx_hal.c ****     }
 278:Drivers/STM32U5xx_HAL_Driver/Src/stm32u5xx_hal.c ****   }
 279:Drivers/STM32U5xx_HAL_Driver/Src/stm32u5xx_hal.c **** 
 280:Drivers/STM32U5xx_HAL_Driver/Src/stm32u5xx_hal.c ****   /* Configure the SysTick to have interrupt in 1ms time basis*/
 281:Drivers/STM32U5xx_HAL_Driver/Src/stm32u5xx_hal.c ****   if (HAL_SYSTICK_Config(ticknumber) > 0U)
 192              		.loc 1 281 3 is_stmt 1 view .LVU44
 193              		.loc 1 281 7 is_stmt 0 view .LVU45
 194 0028 2046     		mov	r0, r4
 195 002a FFF7FEFF 		bl	HAL_SYSTICK_Config
 196              	.LVL4:
 197              		.loc 1 281 6 view .LVU46
 198 002e 50B3     		cbz	r0, .L16
 282:Drivers/STM32U5xx_HAL_Driver/Src/stm32u5xx_hal.c ****   {
 283:Drivers/STM32U5xx_HAL_Driver/Src/stm32u5xx_hal.c ****     return HAL_ERROR;
 199              		.loc 1 283 12 view .LVU47
 200 0030 0120     		movs	r0, #1
 201 0032 33E0     		b	.L8
 202              	.LVL5:
 203              	.L9:
 256:Drivers/STM32U5xx_HAL_Driver/Src/stm32u5xx_hal.c ****     switch (systicksel)
 204              		.loc 1 256 5 is_stmt 1 view .LVU48
 256:Drivers/STM32U5xx_HAL_Driver/Src/stm32u5xx_hal.c ****     switch (systicksel)
 205              		.loc 1 256 18 is_stmt 0 view .LVU49
 206 0034 FFF7FEFF 		bl	HAL_SYSTICK_GetCLKSourceConfig
 207              	.LVL6:
 257:Drivers/STM32U5xx_HAL_Driver/Src/stm32u5xx_hal.c ****     {
 208              		.loc 1 257 5 is_stmt 1 view .LVU50
ARM GAS  /tmp/ccEI086O.s 			page 10


 209 0038 0128     		cmp	r0, #1
 210 003a 0ED0     		beq	.L11
 211 003c 0228     		cmp	r0, #2
 212 003e 17D0     		beq	.L12
 213 0040 0028     		cmp	r0, #0
 214 0042 F1D1     		bne	.L10
 262:Drivers/STM32U5xx_HAL_Driver/Src/stm32u5xx_hal.c ****         break;
 215              		.loc 1 262 9 view .LVU51
 262:Drivers/STM32U5xx_HAL_Driver/Src/stm32u5xx_hal.c ****         break;
 216              		.loc 1 262 39 is_stmt 0 view .LVU52
 217 0044 174B     		ldr	r3, .L17+4
 218 0046 1C68     		ldr	r4, [r3]
 262:Drivers/STM32U5xx_HAL_Driver/Src/stm32u5xx_hal.c ****         break;
 219              		.loc 1 262 51 view .LVU53
 220 0048 154A     		ldr	r2, .L17
 221 004a 1178     		ldrb	r1, [r2]	@ zero_extendqisi2
 262:Drivers/STM32U5xx_HAL_Driver/Src/stm32u5xx_hal.c ****         break;
 222              		.loc 1 262 49 view .LVU54
 223 004c 4FF4FA52 		mov	r2, #8000
 224 0050 B2FBF1F2 		udiv	r2, r2, r1
 262:Drivers/STM32U5xx_HAL_Driver/Src/stm32u5xx_hal.c ****         break;
 225              		.loc 1 262 20 view .LVU55
 226 0054 B4FBF2F4 		udiv	r4, r4, r2
 227              	.LVL7:
 263:Drivers/STM32U5xx_HAL_Driver/Src/stm32u5xx_hal.c ****       /* LSI selected as SysTick clock source */
 228              		.loc 1 263 9 is_stmt 1 view .LVU56
 229 0058 E6E7     		b	.L10
 230              	.LVL8:
 231              	.L11:
 267:Drivers/STM32U5xx_HAL_Driver/Src/stm32u5xx_hal.c ****         break;
 232              		.loc 1 267 9 view .LVU57
 267:Drivers/STM32U5xx_HAL_Driver/Src/stm32u5xx_hal.c ****         break;
 233              		.loc 1 267 45 is_stmt 0 view .LVU58
 234 005a 114B     		ldr	r3, .L17
 235 005c 1B78     		ldrb	r3, [r3]	@ zero_extendqisi2
 267:Drivers/STM32U5xx_HAL_Driver/Src/stm32u5xx_hal.c ****         break;
 236              		.loc 1 267 43 view .LVU59
 237 005e 4FF47A72 		mov	r2, #1000
 238 0062 B2FBF3F2 		udiv	r2, r2, r3
 267:Drivers/STM32U5xx_HAL_Driver/Src/stm32u5xx_hal.c ****         break;
 239              		.loc 1 267 20 view .LVU60
 240 0066 4FF4FA43 		mov	r3, #32000
 241 006a B3FBF2F4 		udiv	r4, r3, r2
 242              	.LVL9:
 268:Drivers/STM32U5xx_HAL_Driver/Src/stm32u5xx_hal.c ****       /* LSE selected as SysTick clock source */
 243              		.loc 1 268 9 is_stmt 1 view .LVU61
 244 006e DBE7     		b	.L10
 245              	.LVL10:
 246              	.L12:
 272:Drivers/STM32U5xx_HAL_Driver/Src/stm32u5xx_hal.c ****         break;
 247              		.loc 1 272 9 view .LVU62
 272:Drivers/STM32U5xx_HAL_Driver/Src/stm32u5xx_hal.c ****         break;
 248              		.loc 1 272 45 is_stmt 0 view .LVU63
 249 0070 0B4B     		ldr	r3, .L17
 250 0072 1B78     		ldrb	r3, [r3]	@ zero_extendqisi2
 272:Drivers/STM32U5xx_HAL_Driver/Src/stm32u5xx_hal.c ****         break;
 251              		.loc 1 272 43 view .LVU64
ARM GAS  /tmp/ccEI086O.s 			page 11


 252 0074 4FF47A72 		mov	r2, #1000
 253 0078 B2FBF3F2 		udiv	r2, r2, r3
 272:Drivers/STM32U5xx_HAL_Driver/Src/stm32u5xx_hal.c ****         break;
 254              		.loc 1 272 20 view .LVU65
 255 007c 4FF40043 		mov	r3, #32768
 256 0080 B3FBF2F4 		udiv	r4, r3, r2
 257              	.LVL11:
 273:Drivers/STM32U5xx_HAL_Driver/Src/stm32u5xx_hal.c ****       default:
 258              		.loc 1 273 9 is_stmt 1 view .LVU66
 259 0084 D0E7     		b	.L10
 260              	.LVL12:
 261              	.L16:
 284:Drivers/STM32U5xx_HAL_Driver/Src/stm32u5xx_hal.c ****   }
 285:Drivers/STM32U5xx_HAL_Driver/Src/stm32u5xx_hal.c **** 
 286:Drivers/STM32U5xx_HAL_Driver/Src/stm32u5xx_hal.c ****   /* Configure the SysTick IRQ priority */
 287:Drivers/STM32U5xx_HAL_Driver/Src/stm32u5xx_hal.c ****   HAL_NVIC_SetPriority(SysTick_IRQn, TickPriority, 0U);
 262              		.loc 1 287 3 view .LVU67
 263 0086 0022     		movs	r2, #0
 264 0088 2946     		mov	r1, r5
 265 008a 4FF0FF30 		mov	r0, #-1
 266 008e FFF7FEFF 		bl	HAL_NVIC_SetPriority
 267              	.LVL13:
 288:Drivers/STM32U5xx_HAL_Driver/Src/stm32u5xx_hal.c ****   uwTickPrio = TickPriority;
 268              		.loc 1 288 3 view .LVU68
 269              		.loc 1 288 14 is_stmt 0 view .LVU69
 270 0092 054B     		ldr	r3, .L17+8
 271 0094 1D60     		str	r5, [r3]
 289:Drivers/STM32U5xx_HAL_Driver/Src/stm32u5xx_hal.c **** 
 290:Drivers/STM32U5xx_HAL_Driver/Src/stm32u5xx_hal.c ****   /* Return function status */
 291:Drivers/STM32U5xx_HAL_Driver/Src/stm32u5xx_hal.c ****   return HAL_OK;
 272              		.loc 1 291 3 is_stmt 1 view .LVU70
 273              		.loc 1 291 10 is_stmt 0 view .LVU71
 274 0096 0020     		movs	r0, #0
 275 0098 00E0     		b	.L8
 276              	.LVL14:
 277              	.L13:
 245:Drivers/STM32U5xx_HAL_Driver/Src/stm32u5xx_hal.c ****   }
 278              		.loc 1 245 12 view .LVU72
 279 009a 0120     		movs	r0, #1
 280              	.LVL15:
 281              	.L8:
 292:Drivers/STM32U5xx_HAL_Driver/Src/stm32u5xx_hal.c **** }
 282              		.loc 1 292 1 view .LVU73
 283 009c 38BD     		pop	{r3, r4, r5, pc}
 284              	.L18:
 285 009e 00BF     		.align	2
 286              	.L17:
 287 00a0 00000000 		.word	uwTickFreq
 288 00a4 00000000 		.word	SystemCoreClock
 289 00a8 00000000 		.word	uwTickPrio
 290              		.cfi_endproc
 291              	.LFE161:
 293              		.section	.text.HAL_Init,"ax",%progbits
 294              		.align	1
 295              		.global	HAL_Init
 296              		.syntax unified
 297              		.thumb
ARM GAS  /tmp/ccEI086O.s 			page 12


 298              		.thumb_func
 300              	HAL_Init:
 301              	.LFB157:
 141:Drivers/STM32U5xx_HAL_Driver/Src/stm32u5xx_hal.c ****   /* Configure Flash prefetch */
 302              		.loc 1 141 1 is_stmt 1 view -0
 303              		.cfi_startproc
 304              		@ args = 0, pretend = 0, frame = 0
 305              		@ frame_needed = 0, uses_anonymous_args = 0
 306 0000 10B5     		push	{r4, lr}
 307              	.LCFI2:
 308              		.cfi_def_cfa_offset 8
 309              		.cfi_offset 4, -8
 310              		.cfi_offset 14, -4
 144:Drivers/STM32U5xx_HAL_Driver/Src/stm32u5xx_hal.c **** #endif /* PREFETCH_ENABLE */
 311              		.loc 1 144 3 view .LVU75
 312 0002 104A     		ldr	r2, .L24
 313 0004 1368     		ldr	r3, [r2]
 314 0006 43F48073 		orr	r3, r3, #256
 315 000a 1360     		str	r3, [r2]
 148:Drivers/STM32U5xx_HAL_Driver/Src/stm32u5xx_hal.c **** 
 316              		.loc 1 148 3 view .LVU76
 317 000c 0320     		movs	r0, #3
 318 000e FFF7FEFF 		bl	HAL_NVIC_SetPriorityGrouping
 319              	.LVL16:
 151:Drivers/STM32U5xx_HAL_Driver/Src/stm32u5xx_hal.c **** 
 320              		.loc 1 151 3 view .LVU77
 151:Drivers/STM32U5xx_HAL_Driver/Src/stm32u5xx_hal.c **** 
 321              		.loc 1 151 21 is_stmt 0 view .LVU78
 322 0012 FFF7FEFF 		bl	HAL_RCC_GetSysClockFreq
 323              	.LVL17:
 151:Drivers/STM32U5xx_HAL_Driver/Src/stm32u5xx_hal.c **** 
 324              		.loc 1 151 68 view .LVU79
 325 0016 0C4B     		ldr	r3, .L24+4
 326 0018 1B6A     		ldr	r3, [r3, #32]
 151:Drivers/STM32U5xx_HAL_Driver/Src/stm32u5xx_hal.c **** 
 327              		.loc 1 151 94 view .LVU80
 328 001a 03F00F03 		and	r3, r3, #15
 151:Drivers/STM32U5xx_HAL_Driver/Src/stm32u5xx_hal.c **** 
 329              		.loc 1 151 63 view .LVU81
 330 001e 0B4A     		ldr	r2, .L24+8
 331 0020 D35C     		ldrb	r3, [r2, r3]	@ zero_extendqisi2
 151:Drivers/STM32U5xx_HAL_Driver/Src/stm32u5xx_hal.c **** 
 332              		.loc 1 151 47 view .LVU82
 333 0022 D840     		lsrs	r0, r0, r3
 151:Drivers/STM32U5xx_HAL_Driver/Src/stm32u5xx_hal.c **** 
 334              		.loc 1 151 19 view .LVU83
 335 0024 0A4B     		ldr	r3, .L24+12
 336 0026 1860     		str	r0, [r3]
 154:Drivers/STM32U5xx_HAL_Driver/Src/stm32u5xx_hal.c **** 
 337              		.loc 1 154 3 is_stmt 1 view .LVU84
 338 0028 0420     		movs	r0, #4
 339 002a FFF7FEFF 		bl	HAL_SYSTICK_CLKSourceConfig
 340              	.LVL18:
 157:Drivers/STM32U5xx_HAL_Driver/Src/stm32u5xx_hal.c ****   {
 341              		.loc 1 157 3 view .LVU85
 157:Drivers/STM32U5xx_HAL_Driver/Src/stm32u5xx_hal.c ****   {
 342              		.loc 1 157 7 is_stmt 0 view .LVU86
ARM GAS  /tmp/ccEI086O.s 			page 13


 343 002e 0720     		movs	r0, #7
 344 0030 FFF7FEFF 		bl	HAL_InitTick
 345              	.LVL19:
 157:Drivers/STM32U5xx_HAL_Driver/Src/stm32u5xx_hal.c ****   {
 346              		.loc 1 157 6 view .LVU87
 347 0034 10B1     		cbz	r0, .L23
 159:Drivers/STM32U5xx_HAL_Driver/Src/stm32u5xx_hal.c ****   }
 348              		.loc 1 159 12 view .LVU88
 349 0036 0124     		movs	r4, #1
 350              	.L20:
 167:Drivers/STM32U5xx_HAL_Driver/Src/stm32u5xx_hal.c **** 
 351              		.loc 1 167 1 view .LVU89
 352 0038 2046     		mov	r0, r4
 353 003a 10BD     		pop	{r4, pc}
 354              	.L23:
 355 003c 0446     		mov	r4, r0
 163:Drivers/STM32U5xx_HAL_Driver/Src/stm32u5xx_hal.c **** 
 356              		.loc 1 163 3 is_stmt 1 view .LVU90
 357 003e FFF7FEFF 		bl	HAL_MspInit
 358              	.LVL20:
 166:Drivers/STM32U5xx_HAL_Driver/Src/stm32u5xx_hal.c **** }
 359              		.loc 1 166 3 view .LVU91
 166:Drivers/STM32U5xx_HAL_Driver/Src/stm32u5xx_hal.c **** }
 360              		.loc 1 166 10 is_stmt 0 view .LVU92
 361 0042 F9E7     		b	.L20
 362              	.L25:
 363              		.align	2
 364              	.L24:
 365 0044 00200240 		.word	1073881088
 366 0048 000C0246 		.word	1174539264
 367 004c 00000000 		.word	AHBPrescTable
 368 0050 00000000 		.word	SystemCoreClock
 369              		.cfi_endproc
 370              	.LFE157:
 372              		.section	.text.HAL_IncTick,"ax",%progbits
 373              		.align	1
 374              		.weak	HAL_IncTick
 375              		.syntax unified
 376              		.thumb
 377              		.thumb_func
 379              	HAL_IncTick:
 380              	.LFB162:
 293:Drivers/STM32U5xx_HAL_Driver/Src/stm32u5xx_hal.c **** 
 294:Drivers/STM32U5xx_HAL_Driver/Src/stm32u5xx_hal.c **** /**
 295:Drivers/STM32U5xx_HAL_Driver/Src/stm32u5xx_hal.c ****   * @}
 296:Drivers/STM32U5xx_HAL_Driver/Src/stm32u5xx_hal.c ****   */
 297:Drivers/STM32U5xx_HAL_Driver/Src/stm32u5xx_hal.c **** 
 298:Drivers/STM32U5xx_HAL_Driver/Src/stm32u5xx_hal.c **** /** @defgroup HAL_Exported_Functions_Group2 HAL Control functions
 299:Drivers/STM32U5xx_HAL_Driver/Src/stm32u5xx_hal.c ****   *  @brief    HAL Control functions
 300:Drivers/STM32U5xx_HAL_Driver/Src/stm32u5xx_hal.c ****   *
 301:Drivers/STM32U5xx_HAL_Driver/Src/stm32u5xx_hal.c **** @verbatim
 302:Drivers/STM32U5xx_HAL_Driver/Src/stm32u5xx_hal.c ****  ===============================================================================
 303:Drivers/STM32U5xx_HAL_Driver/Src/stm32u5xx_hal.c ****                       ##### HAL Control functions #####
 304:Drivers/STM32U5xx_HAL_Driver/Src/stm32u5xx_hal.c ****  ===============================================================================
 305:Drivers/STM32U5xx_HAL_Driver/Src/stm32u5xx_hal.c ****     [..]  This section provides functions allowing to:
 306:Drivers/STM32U5xx_HAL_Driver/Src/stm32u5xx_hal.c ****       (+) Provide a tick value in millisecond
 307:Drivers/STM32U5xx_HAL_Driver/Src/stm32u5xx_hal.c ****       (+) Provide a blocking delay in millisecond
ARM GAS  /tmp/ccEI086O.s 			page 14


 308:Drivers/STM32U5xx_HAL_Driver/Src/stm32u5xx_hal.c ****       (+) Suspend the time base source interrupt
 309:Drivers/STM32U5xx_HAL_Driver/Src/stm32u5xx_hal.c ****       (+) Resume the time base source interrupt
 310:Drivers/STM32U5xx_HAL_Driver/Src/stm32u5xx_hal.c ****       (+) Get the HAL API driver version
 311:Drivers/STM32U5xx_HAL_Driver/Src/stm32u5xx_hal.c ****       (+) Get the device identifier
 312:Drivers/STM32U5xx_HAL_Driver/Src/stm32u5xx_hal.c ****       (+) Get the device revision identifier
 313:Drivers/STM32U5xx_HAL_Driver/Src/stm32u5xx_hal.c ****       (+) Enable/Disable Debug module during SLEEP mode
 314:Drivers/STM32U5xx_HAL_Driver/Src/stm32u5xx_hal.c ****       (+) Enable/Disable Debug module during STOP mode
 315:Drivers/STM32U5xx_HAL_Driver/Src/stm32u5xx_hal.c ****       (+) Enable/Disable Debug module during STANDBY mode
 316:Drivers/STM32U5xx_HAL_Driver/Src/stm32u5xx_hal.c **** 
 317:Drivers/STM32U5xx_HAL_Driver/Src/stm32u5xx_hal.c **** @endverbatim
 318:Drivers/STM32U5xx_HAL_Driver/Src/stm32u5xx_hal.c ****   * @{
 319:Drivers/STM32U5xx_HAL_Driver/Src/stm32u5xx_hal.c ****   */
 320:Drivers/STM32U5xx_HAL_Driver/Src/stm32u5xx_hal.c **** 
 321:Drivers/STM32U5xx_HAL_Driver/Src/stm32u5xx_hal.c **** /**
 322:Drivers/STM32U5xx_HAL_Driver/Src/stm32u5xx_hal.c ****   * @brief This function is called to increment a global variable "uwTick"
 323:Drivers/STM32U5xx_HAL_Driver/Src/stm32u5xx_hal.c ****   *        used as application time base.
 324:Drivers/STM32U5xx_HAL_Driver/Src/stm32u5xx_hal.c ****   * @note In the default implementation, this variable is incremented each 1ms
 325:Drivers/STM32U5xx_HAL_Driver/Src/stm32u5xx_hal.c ****   *       in SysTick ISR.
 326:Drivers/STM32U5xx_HAL_Driver/Src/stm32u5xx_hal.c ****   * @note This function is declared as __weak to be overwritten in case of other
 327:Drivers/STM32U5xx_HAL_Driver/Src/stm32u5xx_hal.c ****   *      implementations in user file.
 328:Drivers/STM32U5xx_HAL_Driver/Src/stm32u5xx_hal.c ****   * @retval None
 329:Drivers/STM32U5xx_HAL_Driver/Src/stm32u5xx_hal.c ****   */
 330:Drivers/STM32U5xx_HAL_Driver/Src/stm32u5xx_hal.c **** __weak void HAL_IncTick(void)
 331:Drivers/STM32U5xx_HAL_Driver/Src/stm32u5xx_hal.c **** {
 381              		.loc 1 331 1 is_stmt 1 view -0
 382              		.cfi_startproc
 383              		@ args = 0, pretend = 0, frame = 0
 384              		@ frame_needed = 0, uses_anonymous_args = 0
 385              		@ link register save eliminated.
 332:Drivers/STM32U5xx_HAL_Driver/Src/stm32u5xx_hal.c ****   uwTick += (uint32_t)uwTickFreq;
 386              		.loc 1 332 3 view .LVU94
 387              		.loc 1 332 13 is_stmt 0 view .LVU95
 388 0000 034B     		ldr	r3, .L27
 389 0002 1B78     		ldrb	r3, [r3]	@ zero_extendqisi2
 390              		.loc 1 332 10 view .LVU96
 391 0004 034A     		ldr	r2, .L27+4
 392 0006 1168     		ldr	r1, [r2]
 393 0008 0B44     		add	r3, r3, r1
 394 000a 1360     		str	r3, [r2]
 333:Drivers/STM32U5xx_HAL_Driver/Src/stm32u5xx_hal.c **** }
 395              		.loc 1 333 1 view .LVU97
 396 000c 7047     		bx	lr
 397              	.L28:
 398 000e 00BF     		.align	2
 399              	.L27:
 400 0010 00000000 		.word	uwTickFreq
 401 0014 00000000 		.word	uwTick
 402              		.cfi_endproc
 403              	.LFE162:
 405              		.section	.text.HAL_GetTick,"ax",%progbits
 406              		.align	1
 407              		.weak	HAL_GetTick
 408              		.syntax unified
 409              		.thumb
 410              		.thumb_func
 412              	HAL_GetTick:
 413              	.LFB163:
ARM GAS  /tmp/ccEI086O.s 			page 15


 334:Drivers/STM32U5xx_HAL_Driver/Src/stm32u5xx_hal.c **** 
 335:Drivers/STM32U5xx_HAL_Driver/Src/stm32u5xx_hal.c **** /**
 336:Drivers/STM32U5xx_HAL_Driver/Src/stm32u5xx_hal.c ****   * @brief Provides a tick value in millisecond.
 337:Drivers/STM32U5xx_HAL_Driver/Src/stm32u5xx_hal.c ****   * @note This function is declared as __weak to be overwritten in case of other
 338:Drivers/STM32U5xx_HAL_Driver/Src/stm32u5xx_hal.c ****   *       implementations in user file.
 339:Drivers/STM32U5xx_HAL_Driver/Src/stm32u5xx_hal.c ****   * @retval tick value
 340:Drivers/STM32U5xx_HAL_Driver/Src/stm32u5xx_hal.c ****   */
 341:Drivers/STM32U5xx_HAL_Driver/Src/stm32u5xx_hal.c **** __weak uint32_t HAL_GetTick(void)
 342:Drivers/STM32U5xx_HAL_Driver/Src/stm32u5xx_hal.c **** {
 414              		.loc 1 342 1 is_stmt 1 view -0
 415              		.cfi_startproc
 416              		@ args = 0, pretend = 0, frame = 0
 417              		@ frame_needed = 0, uses_anonymous_args = 0
 418              		@ link register save eliminated.
 343:Drivers/STM32U5xx_HAL_Driver/Src/stm32u5xx_hal.c ****   return uwTick;
 419              		.loc 1 343 3 view .LVU99
 420              		.loc 1 343 10 is_stmt 0 view .LVU100
 421 0000 014B     		ldr	r3, .L30
 422 0002 1868     		ldr	r0, [r3]
 344:Drivers/STM32U5xx_HAL_Driver/Src/stm32u5xx_hal.c **** }
 423              		.loc 1 344 1 view .LVU101
 424 0004 7047     		bx	lr
 425              	.L31:
 426 0006 00BF     		.align	2
 427              	.L30:
 428 0008 00000000 		.word	uwTick
 429              		.cfi_endproc
 430              	.LFE163:
 432              		.section	.text.HAL_GetTickPrio,"ax",%progbits
 433              		.align	1
 434              		.global	HAL_GetTickPrio
 435              		.syntax unified
 436              		.thumb
 437              		.thumb_func
 439              	HAL_GetTickPrio:
 440              	.LFB164:
 345:Drivers/STM32U5xx_HAL_Driver/Src/stm32u5xx_hal.c **** 
 346:Drivers/STM32U5xx_HAL_Driver/Src/stm32u5xx_hal.c **** /**
 347:Drivers/STM32U5xx_HAL_Driver/Src/stm32u5xx_hal.c ****   * @brief This function returns a tick priority.
 348:Drivers/STM32U5xx_HAL_Driver/Src/stm32u5xx_hal.c ****   * @retval tick priority
 349:Drivers/STM32U5xx_HAL_Driver/Src/stm32u5xx_hal.c ****   */
 350:Drivers/STM32U5xx_HAL_Driver/Src/stm32u5xx_hal.c **** uint32_t HAL_GetTickPrio(void)
 351:Drivers/STM32U5xx_HAL_Driver/Src/stm32u5xx_hal.c **** {
 441              		.loc 1 351 1 is_stmt 1 view -0
 442              		.cfi_startproc
 443              		@ args = 0, pretend = 0, frame = 0
 444              		@ frame_needed = 0, uses_anonymous_args = 0
 445              		@ link register save eliminated.
 352:Drivers/STM32U5xx_HAL_Driver/Src/stm32u5xx_hal.c ****   return uwTickPrio;
 446              		.loc 1 352 3 view .LVU103
 353:Drivers/STM32U5xx_HAL_Driver/Src/stm32u5xx_hal.c **** }
 447              		.loc 1 353 1 is_stmt 0 view .LVU104
 448 0000 014B     		ldr	r3, .L33
 449 0002 1868     		ldr	r0, [r3]
 450 0004 7047     		bx	lr
 451              	.L34:
 452 0006 00BF     		.align	2
ARM GAS  /tmp/ccEI086O.s 			page 16


 453              	.L33:
 454 0008 00000000 		.word	uwTickPrio
 455              		.cfi_endproc
 456              	.LFE164:
 458              		.section	.text.HAL_SetTickFreq,"ax",%progbits
 459              		.align	1
 460              		.global	HAL_SetTickFreq
 461              		.syntax unified
 462              		.thumb
 463              		.thumb_func
 465              	HAL_SetTickFreq:
 466              	.LVL21:
 467              	.LFB165:
 354:Drivers/STM32U5xx_HAL_Driver/Src/stm32u5xx_hal.c **** 
 355:Drivers/STM32U5xx_HAL_Driver/Src/stm32u5xx_hal.c **** /**
 356:Drivers/STM32U5xx_HAL_Driver/Src/stm32u5xx_hal.c ****   * @brief Set new tick Freq.
 357:Drivers/STM32U5xx_HAL_Driver/Src/stm32u5xx_hal.c ****   * @retval Status
 358:Drivers/STM32U5xx_HAL_Driver/Src/stm32u5xx_hal.c ****   */
 359:Drivers/STM32U5xx_HAL_Driver/Src/stm32u5xx_hal.c **** HAL_StatusTypeDef HAL_SetTickFreq(HAL_TickFreqTypeDef Freq)
 360:Drivers/STM32U5xx_HAL_Driver/Src/stm32u5xx_hal.c **** {
 468              		.loc 1 360 1 is_stmt 1 view -0
 469              		.cfi_startproc
 470              		@ args = 0, pretend = 0, frame = 0
 471              		@ frame_needed = 0, uses_anonymous_args = 0
 361:Drivers/STM32U5xx_HAL_Driver/Src/stm32u5xx_hal.c ****   HAL_StatusTypeDef status  = HAL_OK;
 472              		.loc 1 361 3 view .LVU106
 362:Drivers/STM32U5xx_HAL_Driver/Src/stm32u5xx_hal.c ****   assert_param(IS_TICKFREQ(Freq));
 473              		.loc 1 362 3 view .LVU107
 363:Drivers/STM32U5xx_HAL_Driver/Src/stm32u5xx_hal.c **** 
 364:Drivers/STM32U5xx_HAL_Driver/Src/stm32u5xx_hal.c ****   if (uwTickFreq != Freq)
 474              		.loc 1 364 3 view .LVU108
 475              		.loc 1 364 18 is_stmt 0 view .LVU109
 476 0000 074B     		ldr	r3, .L43
 477 0002 1B78     		ldrb	r3, [r3]	@ zero_extendqisi2
 478              		.loc 1 364 6 view .LVU110
 479 0004 8342     		cmp	r3, r0
 480 0006 01D1     		bne	.L42
 361:Drivers/STM32U5xx_HAL_Driver/Src/stm32u5xx_hal.c ****   assert_param(IS_TICKFREQ(Freq));
 481              		.loc 1 361 21 view .LVU111
 482 0008 0020     		movs	r0, #0
 483              	.LVL22:
 365:Drivers/STM32U5xx_HAL_Driver/Src/stm32u5xx_hal.c ****   {
 366:Drivers/STM32U5xx_HAL_Driver/Src/stm32u5xx_hal.c ****     /* Apply the new tick Freq  */
 367:Drivers/STM32U5xx_HAL_Driver/Src/stm32u5xx_hal.c ****     status = HAL_InitTick(uwTickPrio);
 368:Drivers/STM32U5xx_HAL_Driver/Src/stm32u5xx_hal.c **** 
 369:Drivers/STM32U5xx_HAL_Driver/Src/stm32u5xx_hal.c ****     if (status == HAL_OK)
 370:Drivers/STM32U5xx_HAL_Driver/Src/stm32u5xx_hal.c ****     {
 371:Drivers/STM32U5xx_HAL_Driver/Src/stm32u5xx_hal.c ****       uwTickFreq = Freq;
 372:Drivers/STM32U5xx_HAL_Driver/Src/stm32u5xx_hal.c ****     }
 373:Drivers/STM32U5xx_HAL_Driver/Src/stm32u5xx_hal.c ****   }
 374:Drivers/STM32U5xx_HAL_Driver/Src/stm32u5xx_hal.c **** 
 375:Drivers/STM32U5xx_HAL_Driver/Src/stm32u5xx_hal.c ****   return status;
 484              		.loc 1 375 3 is_stmt 1 view .LVU112
 376:Drivers/STM32U5xx_HAL_Driver/Src/stm32u5xx_hal.c **** }
 485              		.loc 1 376 1 is_stmt 0 view .LVU113
 486 000a 7047     		bx	lr
 487              	.LVL23:
ARM GAS  /tmp/ccEI086O.s 			page 17


 488              	.L42:
 360:Drivers/STM32U5xx_HAL_Driver/Src/stm32u5xx_hal.c ****   HAL_StatusTypeDef status  = HAL_OK;
 489              		.loc 1 360 1 view .LVU114
 490 000c 10B5     		push	{r4, lr}
 491              	.LCFI3:
 492              		.cfi_def_cfa_offset 8
 493              		.cfi_offset 4, -8
 494              		.cfi_offset 14, -4
 495 000e 0446     		mov	r4, r0
 367:Drivers/STM32U5xx_HAL_Driver/Src/stm32u5xx_hal.c **** 
 496              		.loc 1 367 5 is_stmt 1 view .LVU115
 367:Drivers/STM32U5xx_HAL_Driver/Src/stm32u5xx_hal.c **** 
 497              		.loc 1 367 14 is_stmt 0 view .LVU116
 498 0010 044B     		ldr	r3, .L43+4
 499 0012 1868     		ldr	r0, [r3]
 500              	.LVL24:
 367:Drivers/STM32U5xx_HAL_Driver/Src/stm32u5xx_hal.c **** 
 501              		.loc 1 367 14 view .LVU117
 502 0014 FFF7FEFF 		bl	HAL_InitTick
 503              	.LVL25:
 369:Drivers/STM32U5xx_HAL_Driver/Src/stm32u5xx_hal.c ****     {
 504              		.loc 1 369 5 is_stmt 1 view .LVU118
 369:Drivers/STM32U5xx_HAL_Driver/Src/stm32u5xx_hal.c ****     {
 505              		.loc 1 369 8 is_stmt 0 view .LVU119
 506 0018 08B9     		cbnz	r0, .L36
 371:Drivers/STM32U5xx_HAL_Driver/Src/stm32u5xx_hal.c ****     }
 507              		.loc 1 371 7 is_stmt 1 view .LVU120
 371:Drivers/STM32U5xx_HAL_Driver/Src/stm32u5xx_hal.c ****     }
 508              		.loc 1 371 18 is_stmt 0 view .LVU121
 509 001a 014B     		ldr	r3, .L43
 510 001c 1C70     		strb	r4, [r3]
 511              	.L36:
 375:Drivers/STM32U5xx_HAL_Driver/Src/stm32u5xx_hal.c **** }
 512              		.loc 1 375 3 is_stmt 1 view .LVU122
 513              		.loc 1 376 1 is_stmt 0 view .LVU123
 514 001e 10BD     		pop	{r4, pc}
 515              	.L44:
 516              		.align	2
 517              	.L43:
 518 0020 00000000 		.word	uwTickFreq
 519 0024 00000000 		.word	uwTickPrio
 520              		.cfi_endproc
 521              	.LFE165:
 523              		.section	.text.HAL_GetTickFreq,"ax",%progbits
 524              		.align	1
 525              		.global	HAL_GetTickFreq
 526              		.syntax unified
 527              		.thumb
 528              		.thumb_func
 530              	HAL_GetTickFreq:
 531              	.LFB166:
 377:Drivers/STM32U5xx_HAL_Driver/Src/stm32u5xx_hal.c **** 
 378:Drivers/STM32U5xx_HAL_Driver/Src/stm32u5xx_hal.c **** /**
 379:Drivers/STM32U5xx_HAL_Driver/Src/stm32u5xx_hal.c ****   * @brief Return tick frequency.
 380:Drivers/STM32U5xx_HAL_Driver/Src/stm32u5xx_hal.c ****   * @retval Tick frequency.
 381:Drivers/STM32U5xx_HAL_Driver/Src/stm32u5xx_hal.c ****   *         Value of @ref HAL_TickFreqTypeDef.
 382:Drivers/STM32U5xx_HAL_Driver/Src/stm32u5xx_hal.c ****   */
ARM GAS  /tmp/ccEI086O.s 			page 18


 383:Drivers/STM32U5xx_HAL_Driver/Src/stm32u5xx_hal.c **** HAL_TickFreqTypeDef HAL_GetTickFreq(void)
 384:Drivers/STM32U5xx_HAL_Driver/Src/stm32u5xx_hal.c **** {
 532              		.loc 1 384 1 is_stmt 1 view -0
 533              		.cfi_startproc
 534              		@ args = 0, pretend = 0, frame = 0
 535              		@ frame_needed = 0, uses_anonymous_args = 0
 536              		@ link register save eliminated.
 385:Drivers/STM32U5xx_HAL_Driver/Src/stm32u5xx_hal.c ****   return uwTickFreq;
 537              		.loc 1 385 3 view .LVU125
 386:Drivers/STM32U5xx_HAL_Driver/Src/stm32u5xx_hal.c **** }
 538              		.loc 1 386 1 is_stmt 0 view .LVU126
 539 0000 014B     		ldr	r3, .L46
 540 0002 1878     		ldrb	r0, [r3]	@ zero_extendqisi2
 541 0004 7047     		bx	lr
 542              	.L47:
 543 0006 00BF     		.align	2
 544              	.L46:
 545 0008 00000000 		.word	uwTickFreq
 546              		.cfi_endproc
 547              	.LFE166:
 549              		.section	.text.HAL_Delay,"ax",%progbits
 550              		.align	1
 551              		.weak	HAL_Delay
 552              		.syntax unified
 553              		.thumb
 554              		.thumb_func
 556              	HAL_Delay:
 557              	.LVL26:
 558              	.LFB167:
 387:Drivers/STM32U5xx_HAL_Driver/Src/stm32u5xx_hal.c **** 
 388:Drivers/STM32U5xx_HAL_Driver/Src/stm32u5xx_hal.c **** /**
 389:Drivers/STM32U5xx_HAL_Driver/Src/stm32u5xx_hal.c ****   * @brief This function provides minimum delay (in milliseconds) based
 390:Drivers/STM32U5xx_HAL_Driver/Src/stm32u5xx_hal.c ****   *        on variable incremented.
 391:Drivers/STM32U5xx_HAL_Driver/Src/stm32u5xx_hal.c ****   * @note In the default implementation , SysTick timer is the source of time base.
 392:Drivers/STM32U5xx_HAL_Driver/Src/stm32u5xx_hal.c ****   *       It is used to generate interrupts at regular time intervals where uwTick
 393:Drivers/STM32U5xx_HAL_Driver/Src/stm32u5xx_hal.c ****   *       is incremented.
 394:Drivers/STM32U5xx_HAL_Driver/Src/stm32u5xx_hal.c ****   * @note This function is declared as __weak to be overwritten in case of other
 395:Drivers/STM32U5xx_HAL_Driver/Src/stm32u5xx_hal.c ****   *       implementations in user file.
 396:Drivers/STM32U5xx_HAL_Driver/Src/stm32u5xx_hal.c ****   * @param Delay  specifies the delay time length, in milliseconds.
 397:Drivers/STM32U5xx_HAL_Driver/Src/stm32u5xx_hal.c ****   * @retval None
 398:Drivers/STM32U5xx_HAL_Driver/Src/stm32u5xx_hal.c ****   */
 399:Drivers/STM32U5xx_HAL_Driver/Src/stm32u5xx_hal.c **** __weak void HAL_Delay(uint32_t Delay)
 400:Drivers/STM32U5xx_HAL_Driver/Src/stm32u5xx_hal.c **** {
 559              		.loc 1 400 1 is_stmt 1 view -0
 560              		.cfi_startproc
 561              		@ args = 0, pretend = 0, frame = 0
 562              		@ frame_needed = 0, uses_anonymous_args = 0
 563              		.loc 1 400 1 is_stmt 0 view .LVU128
 564 0000 38B5     		push	{r3, r4, r5, lr}
 565              	.LCFI4:
 566              		.cfi_def_cfa_offset 16
 567              		.cfi_offset 3, -16
 568              		.cfi_offset 4, -12
 569              		.cfi_offset 5, -8
 570              		.cfi_offset 14, -4
 571 0002 0446     		mov	r4, r0
 401:Drivers/STM32U5xx_HAL_Driver/Src/stm32u5xx_hal.c ****   uint32_t tickstart = HAL_GetTick();
ARM GAS  /tmp/ccEI086O.s 			page 19


 572              		.loc 1 401 3 is_stmt 1 view .LVU129
 573              		.loc 1 401 24 is_stmt 0 view .LVU130
 574 0004 FFF7FEFF 		bl	HAL_GetTick
 575              	.LVL27:
 576              		.loc 1 401 24 view .LVU131
 577 0008 0546     		mov	r5, r0
 578              	.LVL28:
 402:Drivers/STM32U5xx_HAL_Driver/Src/stm32u5xx_hal.c ****   uint32_t wait = Delay;
 579              		.loc 1 402 3 is_stmt 1 view .LVU132
 403:Drivers/STM32U5xx_HAL_Driver/Src/stm32u5xx_hal.c **** 
 404:Drivers/STM32U5xx_HAL_Driver/Src/stm32u5xx_hal.c ****   /* Add a freq to guarantee minimum wait */
 405:Drivers/STM32U5xx_HAL_Driver/Src/stm32u5xx_hal.c ****   if (wait < HAL_MAX_DELAY)
 580              		.loc 1 405 3 view .LVU133
 581              		.loc 1 405 6 is_stmt 0 view .LVU134
 582 000a B4F1FF3F 		cmp	r4, #-1
 583 000e 02D0     		beq	.L50
 406:Drivers/STM32U5xx_HAL_Driver/Src/stm32u5xx_hal.c ****   {
 407:Drivers/STM32U5xx_HAL_Driver/Src/stm32u5xx_hal.c ****     wait += (uint32_t)(uwTickFreq);
 584              		.loc 1 407 5 is_stmt 1 view .LVU135
 585              		.loc 1 407 13 is_stmt 0 view .LVU136
 586 0010 044B     		ldr	r3, .L52
 587 0012 1B78     		ldrb	r3, [r3]	@ zero_extendqisi2
 588              		.loc 1 407 10 view .LVU137
 589 0014 1C44     		add	r4, r4, r3
 590              	.LVL29:
 591              	.L50:
 408:Drivers/STM32U5xx_HAL_Driver/Src/stm32u5xx_hal.c ****   }
 409:Drivers/STM32U5xx_HAL_Driver/Src/stm32u5xx_hal.c **** 
 410:Drivers/STM32U5xx_HAL_Driver/Src/stm32u5xx_hal.c ****   while ((HAL_GetTick() - tickstart) < wait)
 411:Drivers/STM32U5xx_HAL_Driver/Src/stm32u5xx_hal.c ****   {
 412:Drivers/STM32U5xx_HAL_Driver/Src/stm32u5xx_hal.c ****   }
 592              		.loc 1 412 3 is_stmt 1 discriminator 1 view .LVU138
 410:Drivers/STM32U5xx_HAL_Driver/Src/stm32u5xx_hal.c ****   {
 593              		.loc 1 410 38 discriminator 1 view .LVU139
 410:Drivers/STM32U5xx_HAL_Driver/Src/stm32u5xx_hal.c ****   {
 594              		.loc 1 410 11 is_stmt 0 discriminator 1 view .LVU140
 595 0016 FFF7FEFF 		bl	HAL_GetTick
 596              	.LVL30:
 410:Drivers/STM32U5xx_HAL_Driver/Src/stm32u5xx_hal.c ****   {
 597              		.loc 1 410 25 discriminator 1 view .LVU141
 598 001a 401B     		subs	r0, r0, r5
 410:Drivers/STM32U5xx_HAL_Driver/Src/stm32u5xx_hal.c ****   {
 599              		.loc 1 410 38 discriminator 1 view .LVU142
 600 001c A042     		cmp	r0, r4
 601 001e FAD3     		bcc	.L50
 413:Drivers/STM32U5xx_HAL_Driver/Src/stm32u5xx_hal.c **** }
 602              		.loc 1 413 1 view .LVU143
 603 0020 38BD     		pop	{r3, r4, r5, pc}
 604              	.LVL31:
 605              	.L53:
 606              		.loc 1 413 1 view .LVU144
 607 0022 00BF     		.align	2
 608              	.L52:
 609 0024 00000000 		.word	uwTickFreq
 610              		.cfi_endproc
 611              	.LFE167:
 613              		.section	.text.HAL_SuspendTick,"ax",%progbits
ARM GAS  /tmp/ccEI086O.s 			page 20


 614              		.align	1
 615              		.weak	HAL_SuspendTick
 616              		.syntax unified
 617              		.thumb
 618              		.thumb_func
 620              	HAL_SuspendTick:
 621              	.LFB168:
 414:Drivers/STM32U5xx_HAL_Driver/Src/stm32u5xx_hal.c **** 
 415:Drivers/STM32U5xx_HAL_Driver/Src/stm32u5xx_hal.c **** /**
 416:Drivers/STM32U5xx_HAL_Driver/Src/stm32u5xx_hal.c ****   * @brief Suspend Tick increment.
 417:Drivers/STM32U5xx_HAL_Driver/Src/stm32u5xx_hal.c ****   * @note In the default implementation , SysTick timer is the source of time base. It is
 418:Drivers/STM32U5xx_HAL_Driver/Src/stm32u5xx_hal.c ****   *       used to generate interrupts at regular time intervals. Once HAL_SuspendTick()
 419:Drivers/STM32U5xx_HAL_Driver/Src/stm32u5xx_hal.c ****   *       is called, the SysTick interrupt will be disabled and so Tick increment
 420:Drivers/STM32U5xx_HAL_Driver/Src/stm32u5xx_hal.c ****   *       is suspended.
 421:Drivers/STM32U5xx_HAL_Driver/Src/stm32u5xx_hal.c ****   * @note This function is declared as __weak to be overwritten in case of other
 422:Drivers/STM32U5xx_HAL_Driver/Src/stm32u5xx_hal.c ****   *       implementations in user file.
 423:Drivers/STM32U5xx_HAL_Driver/Src/stm32u5xx_hal.c ****   * @retval None
 424:Drivers/STM32U5xx_HAL_Driver/Src/stm32u5xx_hal.c ****   */
 425:Drivers/STM32U5xx_HAL_Driver/Src/stm32u5xx_hal.c **** __weak void HAL_SuspendTick(void)
 426:Drivers/STM32U5xx_HAL_Driver/Src/stm32u5xx_hal.c **** {
 622              		.loc 1 426 1 is_stmt 1 view -0
 623              		.cfi_startproc
 624              		@ args = 0, pretend = 0, frame = 0
 625              		@ frame_needed = 0, uses_anonymous_args = 0
 626              		@ link register save eliminated.
 427:Drivers/STM32U5xx_HAL_Driver/Src/stm32u5xx_hal.c ****   /* Disable SysTick Interrupt */
 428:Drivers/STM32U5xx_HAL_Driver/Src/stm32u5xx_hal.c ****   SysTick->CTRL &= ~SysTick_CTRL_TICKINT_Msk;
 627              		.loc 1 428 3 view .LVU146
 628              		.loc 1 428 10 is_stmt 0 view .LVU147
 629 0000 4FF0E022 		mov	r2, #-536813568
 630 0004 1369     		ldr	r3, [r2, #16]
 631              		.loc 1 428 17 view .LVU148
 632 0006 23F00203 		bic	r3, r3, #2
 633 000a 1361     		str	r3, [r2, #16]
 429:Drivers/STM32U5xx_HAL_Driver/Src/stm32u5xx_hal.c **** }
 634              		.loc 1 429 1 view .LVU149
 635 000c 7047     		bx	lr
 636              		.cfi_endproc
 637              	.LFE168:
 639              		.section	.text.HAL_ResumeTick,"ax",%progbits
 640              		.align	1
 641              		.weak	HAL_ResumeTick
 642              		.syntax unified
 643              		.thumb
 644              		.thumb_func
 646              	HAL_ResumeTick:
 647              	.LFB169:
 430:Drivers/STM32U5xx_HAL_Driver/Src/stm32u5xx_hal.c **** 
 431:Drivers/STM32U5xx_HAL_Driver/Src/stm32u5xx_hal.c **** /**
 432:Drivers/STM32U5xx_HAL_Driver/Src/stm32u5xx_hal.c ****   * @brief Resume Tick increment.
 433:Drivers/STM32U5xx_HAL_Driver/Src/stm32u5xx_hal.c ****   * @note In the default implementation , SysTick timer is the source of time base. It is
 434:Drivers/STM32U5xx_HAL_Driver/Src/stm32u5xx_hal.c ****   *       used to generate interrupts at regular time intervals. Once HAL_ResumeTick()
 435:Drivers/STM32U5xx_HAL_Driver/Src/stm32u5xx_hal.c ****   *       is called, the SysTick interrupt will be enabled and so Tick increment
 436:Drivers/STM32U5xx_HAL_Driver/Src/stm32u5xx_hal.c ****   *       is resumed.
 437:Drivers/STM32U5xx_HAL_Driver/Src/stm32u5xx_hal.c ****   * @note This function is declared as __weak to be overwritten in case of other
 438:Drivers/STM32U5xx_HAL_Driver/Src/stm32u5xx_hal.c ****   *       implementations in user file.
 439:Drivers/STM32U5xx_HAL_Driver/Src/stm32u5xx_hal.c ****   * @retval None
ARM GAS  /tmp/ccEI086O.s 			page 21


 440:Drivers/STM32U5xx_HAL_Driver/Src/stm32u5xx_hal.c ****   */
 441:Drivers/STM32U5xx_HAL_Driver/Src/stm32u5xx_hal.c **** __weak void HAL_ResumeTick(void)
 442:Drivers/STM32U5xx_HAL_Driver/Src/stm32u5xx_hal.c **** {
 648              		.loc 1 442 1 is_stmt 1 view -0
 649              		.cfi_startproc
 650              		@ args = 0, pretend = 0, frame = 0
 651              		@ frame_needed = 0, uses_anonymous_args = 0
 652              		@ link register save eliminated.
 443:Drivers/STM32U5xx_HAL_Driver/Src/stm32u5xx_hal.c ****   /* Enable SysTick Interrupt */
 444:Drivers/STM32U5xx_HAL_Driver/Src/stm32u5xx_hal.c ****   SysTick->CTRL  |= SysTick_CTRL_TICKINT_Msk;
 653              		.loc 1 444 3 view .LVU151
 654              		.loc 1 444 10 is_stmt 0 view .LVU152
 655 0000 4FF0E022 		mov	r2, #-536813568
 656 0004 1369     		ldr	r3, [r2, #16]
 657              		.loc 1 444 18 view .LVU153
 658 0006 43F00203 		orr	r3, r3, #2
 659 000a 1361     		str	r3, [r2, #16]
 445:Drivers/STM32U5xx_HAL_Driver/Src/stm32u5xx_hal.c **** }
 660              		.loc 1 445 1 view .LVU154
 661 000c 7047     		bx	lr
 662              		.cfi_endproc
 663              	.LFE169:
 665              		.section	.text.HAL_GetHalVersion,"ax",%progbits
 666              		.align	1
 667              		.global	HAL_GetHalVersion
 668              		.syntax unified
 669              		.thumb
 670              		.thumb_func
 672              	HAL_GetHalVersion:
 673              	.LFB170:
 446:Drivers/STM32U5xx_HAL_Driver/Src/stm32u5xx_hal.c **** 
 447:Drivers/STM32U5xx_HAL_Driver/Src/stm32u5xx_hal.c **** /**
 448:Drivers/STM32U5xx_HAL_Driver/Src/stm32u5xx_hal.c ****   * @brief  Returns the HAL revision
 449:Drivers/STM32U5xx_HAL_Driver/Src/stm32u5xx_hal.c ****   * @retval version : 0xXYZR (8bits for each decimal, R for RC)
 450:Drivers/STM32U5xx_HAL_Driver/Src/stm32u5xx_hal.c ****   */
 451:Drivers/STM32U5xx_HAL_Driver/Src/stm32u5xx_hal.c **** uint32_t HAL_GetHalVersion(void)
 452:Drivers/STM32U5xx_HAL_Driver/Src/stm32u5xx_hal.c **** {
 674              		.loc 1 452 1 is_stmt 1 view -0
 675              		.cfi_startproc
 676              		@ args = 0, pretend = 0, frame = 0
 677              		@ frame_needed = 0, uses_anonymous_args = 0
 678              		@ link register save eliminated.
 453:Drivers/STM32U5xx_HAL_Driver/Src/stm32u5xx_hal.c ****   return __STM32U5xx_HAL_VERSION;
 679              		.loc 1 453 3 view .LVU156
 454:Drivers/STM32U5xx_HAL_Driver/Src/stm32u5xx_hal.c **** }
 680              		.loc 1 454 1 is_stmt 0 view .LVU157
 681 0000 4FF08370 		mov	r0, #17170432
 682 0004 7047     		bx	lr
 683              		.cfi_endproc
 684              	.LFE170:
 686              		.section	.text.HAL_GetREVID,"ax",%progbits
 687              		.align	1
 688              		.global	HAL_GetREVID
 689              		.syntax unified
 690              		.thumb
 691              		.thumb_func
 693              	HAL_GetREVID:
ARM GAS  /tmp/ccEI086O.s 			page 22


 694              	.LFB171:
 455:Drivers/STM32U5xx_HAL_Driver/Src/stm32u5xx_hal.c **** 
 456:Drivers/STM32U5xx_HAL_Driver/Src/stm32u5xx_hal.c **** /**
 457:Drivers/STM32U5xx_HAL_Driver/Src/stm32u5xx_hal.c ****   * @brief  Returns the device revision identifier.
 458:Drivers/STM32U5xx_HAL_Driver/Src/stm32u5xx_hal.c ****   * @retval Device revision identifier
 459:Drivers/STM32U5xx_HAL_Driver/Src/stm32u5xx_hal.c ****   */
 460:Drivers/STM32U5xx_HAL_Driver/Src/stm32u5xx_hal.c **** uint32_t HAL_GetREVID(void)
 461:Drivers/STM32U5xx_HAL_Driver/Src/stm32u5xx_hal.c **** {
 695              		.loc 1 461 1 is_stmt 1 view -0
 696              		.cfi_startproc
 697              		@ args = 0, pretend = 0, frame = 0
 698              		@ frame_needed = 0, uses_anonymous_args = 0
 699              		@ link register save eliminated.
 462:Drivers/STM32U5xx_HAL_Driver/Src/stm32u5xx_hal.c ****   return ((DBGMCU->IDCODE & DBGMCU_IDCODE_REV_ID) >> 16);
 700              		.loc 1 462 3 view .LVU159
 701              		.loc 1 462 18 is_stmt 0 view .LVU160
 702 0000 014B     		ldr	r3, .L58
 703 0002 1868     		ldr	r0, [r3]
 463:Drivers/STM32U5xx_HAL_Driver/Src/stm32u5xx_hal.c **** }
 704              		.loc 1 463 1 view .LVU161
 705 0004 000C     		lsrs	r0, r0, #16
 706 0006 7047     		bx	lr
 707              	.L59:
 708              		.align	2
 709              	.L58:
 710 0008 004004E0 		.word	-536592384
 711              		.cfi_endproc
 712              	.LFE171:
 714              		.section	.text.HAL_GetDEVID,"ax",%progbits
 715              		.align	1
 716              		.global	HAL_GetDEVID
 717              		.syntax unified
 718              		.thumb
 719              		.thumb_func
 721              	HAL_GetDEVID:
 722              	.LFB172:
 464:Drivers/STM32U5xx_HAL_Driver/Src/stm32u5xx_hal.c **** 
 465:Drivers/STM32U5xx_HAL_Driver/Src/stm32u5xx_hal.c **** /**
 466:Drivers/STM32U5xx_HAL_Driver/Src/stm32u5xx_hal.c ****   * @brief  Returns the device identifier.
 467:Drivers/STM32U5xx_HAL_Driver/Src/stm32u5xx_hal.c ****   * @retval Device identifier
 468:Drivers/STM32U5xx_HAL_Driver/Src/stm32u5xx_hal.c ****   */
 469:Drivers/STM32U5xx_HAL_Driver/Src/stm32u5xx_hal.c **** uint32_t HAL_GetDEVID(void)
 470:Drivers/STM32U5xx_HAL_Driver/Src/stm32u5xx_hal.c **** {
 723              		.loc 1 470 1 is_stmt 1 view -0
 724              		.cfi_startproc
 725              		@ args = 0, pretend = 0, frame = 0
 726              		@ frame_needed = 0, uses_anonymous_args = 0
 727              		@ link register save eliminated.
 471:Drivers/STM32U5xx_HAL_Driver/Src/stm32u5xx_hal.c ****   return (DBGMCU->IDCODE & DBGMCU_IDCODE_DEV_ID);
 728              		.loc 1 471 3 view .LVU163
 729              		.loc 1 471 17 is_stmt 0 view .LVU164
 730 0000 024B     		ldr	r3, .L61
 731 0002 1868     		ldr	r0, [r3]
 472:Drivers/STM32U5xx_HAL_Driver/Src/stm32u5xx_hal.c **** }
 732              		.loc 1 472 1 view .LVU165
 733 0004 C0F30B00 		ubfx	r0, r0, #0, #12
 734 0008 7047     		bx	lr
ARM GAS  /tmp/ccEI086O.s 			page 23


 735              	.L62:
 736 000a 00BF     		.align	2
 737              	.L61:
 738 000c 004004E0 		.word	-536592384
 739              		.cfi_endproc
 740              	.LFE172:
 742              		.section	.text.HAL_GetUIDw0,"ax",%progbits
 743              		.align	1
 744              		.global	HAL_GetUIDw0
 745              		.syntax unified
 746              		.thumb
 747              		.thumb_func
 749              	HAL_GetUIDw0:
 750              	.LFB173:
 473:Drivers/STM32U5xx_HAL_Driver/Src/stm32u5xx_hal.c **** 
 474:Drivers/STM32U5xx_HAL_Driver/Src/stm32u5xx_hal.c **** /**
 475:Drivers/STM32U5xx_HAL_Driver/Src/stm32u5xx_hal.c ****   * @brief  Return the first word of the unique device identifier (UID based on 96 bits)
 476:Drivers/STM32U5xx_HAL_Driver/Src/stm32u5xx_hal.c ****   * @retval Device identifier
 477:Drivers/STM32U5xx_HAL_Driver/Src/stm32u5xx_hal.c ****   */
 478:Drivers/STM32U5xx_HAL_Driver/Src/stm32u5xx_hal.c **** uint32_t HAL_GetUIDw0(void)
 479:Drivers/STM32U5xx_HAL_Driver/Src/stm32u5xx_hal.c **** {
 751              		.loc 1 479 1 is_stmt 1 view -0
 752              		.cfi_startproc
 753              		@ args = 0, pretend = 0, frame = 0
 754              		@ frame_needed = 0, uses_anonymous_args = 0
 755              		@ link register save eliminated.
 480:Drivers/STM32U5xx_HAL_Driver/Src/stm32u5xx_hal.c ****   return (READ_REG(*((uint32_t *)UID_BASE)));
 756              		.loc 1 480 3 view .LVU167
 481:Drivers/STM32U5xx_HAL_Driver/Src/stm32u5xx_hal.c **** }
 757              		.loc 1 481 1 is_stmt 0 view .LVU168
 758 0000 014B     		ldr	r3, .L64
 759 0002 D3F80007 		ldr	r0, [r3, #1792]
 760 0006 7047     		bx	lr
 761              	.L65:
 762              		.align	2
 763              	.L64:
 764 0008 0000FA0B 		.word	200933376
 765              		.cfi_endproc
 766              	.LFE173:
 768              		.section	.text.HAL_GetUIDw1,"ax",%progbits
 769              		.align	1
 770              		.global	HAL_GetUIDw1
 771              		.syntax unified
 772              		.thumb
 773              		.thumb_func
 775              	HAL_GetUIDw1:
 776              	.LFB174:
 482:Drivers/STM32U5xx_HAL_Driver/Src/stm32u5xx_hal.c **** 
 483:Drivers/STM32U5xx_HAL_Driver/Src/stm32u5xx_hal.c **** /**
 484:Drivers/STM32U5xx_HAL_Driver/Src/stm32u5xx_hal.c ****   * @brief  Return the second word of the unique device identifier (UID based on 96 bits)
 485:Drivers/STM32U5xx_HAL_Driver/Src/stm32u5xx_hal.c ****   * @retval Device identifier
 486:Drivers/STM32U5xx_HAL_Driver/Src/stm32u5xx_hal.c ****   */
 487:Drivers/STM32U5xx_HAL_Driver/Src/stm32u5xx_hal.c **** uint32_t HAL_GetUIDw1(void)
 488:Drivers/STM32U5xx_HAL_Driver/Src/stm32u5xx_hal.c **** {
 777              		.loc 1 488 1 is_stmt 1 view -0
 778              		.cfi_startproc
 779              		@ args = 0, pretend = 0, frame = 0
ARM GAS  /tmp/ccEI086O.s 			page 24


 780              		@ frame_needed = 0, uses_anonymous_args = 0
 781              		@ link register save eliminated.
 489:Drivers/STM32U5xx_HAL_Driver/Src/stm32u5xx_hal.c ****   return (READ_REG(*((uint32_t *)(UID_BASE + 4U))));
 782              		.loc 1 489 3 view .LVU170
 490:Drivers/STM32U5xx_HAL_Driver/Src/stm32u5xx_hal.c **** }
 783              		.loc 1 490 1 is_stmt 0 view .LVU171
 784 0000 014B     		ldr	r3, .L67
 785 0002 D3F80407 		ldr	r0, [r3, #1796]
 786 0006 7047     		bx	lr
 787              	.L68:
 788              		.align	2
 789              	.L67:
 790 0008 0000FA0B 		.word	200933376
 791              		.cfi_endproc
 792              	.LFE174:
 794              		.section	.text.HAL_GetUIDw2,"ax",%progbits
 795              		.align	1
 796              		.global	HAL_GetUIDw2
 797              		.syntax unified
 798              		.thumb
 799              		.thumb_func
 801              	HAL_GetUIDw2:
 802              	.LFB175:
 491:Drivers/STM32U5xx_HAL_Driver/Src/stm32u5xx_hal.c **** 
 492:Drivers/STM32U5xx_HAL_Driver/Src/stm32u5xx_hal.c **** /**
 493:Drivers/STM32U5xx_HAL_Driver/Src/stm32u5xx_hal.c ****   * @brief  Return the third word of the unique device identifier (UID based on 96 bits)
 494:Drivers/STM32U5xx_HAL_Driver/Src/stm32u5xx_hal.c ****   * @retval Device identifier
 495:Drivers/STM32U5xx_HAL_Driver/Src/stm32u5xx_hal.c ****   */
 496:Drivers/STM32U5xx_HAL_Driver/Src/stm32u5xx_hal.c **** uint32_t HAL_GetUIDw2(void)
 497:Drivers/STM32U5xx_HAL_Driver/Src/stm32u5xx_hal.c **** {
 803              		.loc 1 497 1 is_stmt 1 view -0
 804              		.cfi_startproc
 805              		@ args = 0, pretend = 0, frame = 0
 806              		@ frame_needed = 0, uses_anonymous_args = 0
 807              		@ link register save eliminated.
 498:Drivers/STM32U5xx_HAL_Driver/Src/stm32u5xx_hal.c ****   return (READ_REG(*((uint32_t *)(UID_BASE + 8U))));
 808              		.loc 1 498 3 view .LVU173
 499:Drivers/STM32U5xx_HAL_Driver/Src/stm32u5xx_hal.c **** }
 809              		.loc 1 499 1 is_stmt 0 view .LVU174
 810 0000 014B     		ldr	r3, .L70
 811 0002 D3F80807 		ldr	r0, [r3, #1800]
 812 0006 7047     		bx	lr
 813              	.L71:
 814              		.align	2
 815              	.L70:
 816 0008 0000FA0B 		.word	200933376
 817              		.cfi_endproc
 818              	.LFE175:
 820              		.section	.text.HAL_DBGMCU_EnableDBGStopMode,"ax",%progbits
 821              		.align	1
 822              		.global	HAL_DBGMCU_EnableDBGStopMode
 823              		.syntax unified
 824              		.thumb
 825              		.thumb_func
 827              	HAL_DBGMCU_EnableDBGStopMode:
 828              	.LFB176:
 500:Drivers/STM32U5xx_HAL_Driver/Src/stm32u5xx_hal.c **** 
ARM GAS  /tmp/ccEI086O.s 			page 25


 501:Drivers/STM32U5xx_HAL_Driver/Src/stm32u5xx_hal.c **** /**
 502:Drivers/STM32U5xx_HAL_Driver/Src/stm32u5xx_hal.c ****   * @}
 503:Drivers/STM32U5xx_HAL_Driver/Src/stm32u5xx_hal.c ****   */
 504:Drivers/STM32U5xx_HAL_Driver/Src/stm32u5xx_hal.c **** 
 505:Drivers/STM32U5xx_HAL_Driver/Src/stm32u5xx_hal.c **** 
 506:Drivers/STM32U5xx_HAL_Driver/Src/stm32u5xx_hal.c **** /** @defgroup HAL_Exported_Functions_Group3 HAL Debug functions
 507:Drivers/STM32U5xx_HAL_Driver/Src/stm32u5xx_hal.c ****   *  @brief    HAL Debug functions
 508:Drivers/STM32U5xx_HAL_Driver/Src/stm32u5xx_hal.c ****   *
 509:Drivers/STM32U5xx_HAL_Driver/Src/stm32u5xx_hal.c **** @verbatim
 510:Drivers/STM32U5xx_HAL_Driver/Src/stm32u5xx_hal.c ****  ===============================================================================
 511:Drivers/STM32U5xx_HAL_Driver/Src/stm32u5xx_hal.c ****                       ##### HAL Debug functions #####
 512:Drivers/STM32U5xx_HAL_Driver/Src/stm32u5xx_hal.c ****  ===============================================================================
 513:Drivers/STM32U5xx_HAL_Driver/Src/stm32u5xx_hal.c ****     [..]  This section provides functions allowing to:
 514:Drivers/STM32U5xx_HAL_Driver/Src/stm32u5xx_hal.c ****       (+) Enable/Disable Debug module during STOP0/STOP1/STOP2 modes
 515:Drivers/STM32U5xx_HAL_Driver/Src/stm32u5xx_hal.c ****       (+) Enable/Disable Debug module during STANDBY mode
 516:Drivers/STM32U5xx_HAL_Driver/Src/stm32u5xx_hal.c **** 
 517:Drivers/STM32U5xx_HAL_Driver/Src/stm32u5xx_hal.c **** @endverbatim
 518:Drivers/STM32U5xx_HAL_Driver/Src/stm32u5xx_hal.c ****   * @{
 519:Drivers/STM32U5xx_HAL_Driver/Src/stm32u5xx_hal.c ****   */
 520:Drivers/STM32U5xx_HAL_Driver/Src/stm32u5xx_hal.c **** 
 521:Drivers/STM32U5xx_HAL_Driver/Src/stm32u5xx_hal.c **** /**
 522:Drivers/STM32U5xx_HAL_Driver/Src/stm32u5xx_hal.c ****   * @brief  Enable the Debug Module during STOP0/STOP1/STOP2 modes.
 523:Drivers/STM32U5xx_HAL_Driver/Src/stm32u5xx_hal.c ****   * @retval None
 524:Drivers/STM32U5xx_HAL_Driver/Src/stm32u5xx_hal.c ****   */
 525:Drivers/STM32U5xx_HAL_Driver/Src/stm32u5xx_hal.c **** void HAL_DBGMCU_EnableDBGStopMode(void)
 526:Drivers/STM32U5xx_HAL_Driver/Src/stm32u5xx_hal.c **** {
 829              		.loc 1 526 1 is_stmt 1 view -0
 830              		.cfi_startproc
 831              		@ args = 0, pretend = 0, frame = 0
 832              		@ frame_needed = 0, uses_anonymous_args = 0
 833              		@ link register save eliminated.
 527:Drivers/STM32U5xx_HAL_Driver/Src/stm32u5xx_hal.c ****   SET_BIT(DBGMCU->CR, DBGMCU_CR_DBG_STOP);
 834              		.loc 1 527 3 view .LVU176
 835 0000 024A     		ldr	r2, .L73
 836 0002 5368     		ldr	r3, [r2, #4]
 837 0004 43F00203 		orr	r3, r3, #2
 838 0008 5360     		str	r3, [r2, #4]
 528:Drivers/STM32U5xx_HAL_Driver/Src/stm32u5xx_hal.c **** }
 839              		.loc 1 528 1 is_stmt 0 view .LVU177
 840 000a 7047     		bx	lr
 841              	.L74:
 842              		.align	2
 843              	.L73:
 844 000c 004004E0 		.word	-536592384
 845              		.cfi_endproc
 846              	.LFE176:
 848              		.section	.text.HAL_DBGMCU_DisableDBGStopMode,"ax",%progbits
 849              		.align	1
 850              		.global	HAL_DBGMCU_DisableDBGStopMode
 851              		.syntax unified
 852              		.thumb
 853              		.thumb_func
 855              	HAL_DBGMCU_DisableDBGStopMode:
 856              	.LFB177:
 529:Drivers/STM32U5xx_HAL_Driver/Src/stm32u5xx_hal.c **** 
 530:Drivers/STM32U5xx_HAL_Driver/Src/stm32u5xx_hal.c **** /**
 531:Drivers/STM32U5xx_HAL_Driver/Src/stm32u5xx_hal.c ****   * @brief  Disable the Debug Module during STOP0/STOP1/STOP2 modes.
ARM GAS  /tmp/ccEI086O.s 			page 26


 532:Drivers/STM32U5xx_HAL_Driver/Src/stm32u5xx_hal.c ****   * @retval None
 533:Drivers/STM32U5xx_HAL_Driver/Src/stm32u5xx_hal.c ****   */
 534:Drivers/STM32U5xx_HAL_Driver/Src/stm32u5xx_hal.c **** void HAL_DBGMCU_DisableDBGStopMode(void)
 535:Drivers/STM32U5xx_HAL_Driver/Src/stm32u5xx_hal.c **** {
 857              		.loc 1 535 1 is_stmt 1 view -0
 858              		.cfi_startproc
 859              		@ args = 0, pretend = 0, frame = 0
 860              		@ frame_needed = 0, uses_anonymous_args = 0
 861              		@ link register save eliminated.
 536:Drivers/STM32U5xx_HAL_Driver/Src/stm32u5xx_hal.c ****   CLEAR_BIT(DBGMCU->CR, DBGMCU_CR_DBG_STOP);
 862              		.loc 1 536 3 view .LVU179
 863 0000 024A     		ldr	r2, .L76
 864 0002 5368     		ldr	r3, [r2, #4]
 865 0004 23F00203 		bic	r3, r3, #2
 866 0008 5360     		str	r3, [r2, #4]
 537:Drivers/STM32U5xx_HAL_Driver/Src/stm32u5xx_hal.c **** }
 867              		.loc 1 537 1 is_stmt 0 view .LVU180
 868 000a 7047     		bx	lr
 869              	.L77:
 870              		.align	2
 871              	.L76:
 872 000c 004004E0 		.word	-536592384
 873              		.cfi_endproc
 874              	.LFE177:
 876              		.section	.text.HAL_DBGMCU_EnableDBGStandbyMode,"ax",%progbits
 877              		.align	1
 878              		.global	HAL_DBGMCU_EnableDBGStandbyMode
 879              		.syntax unified
 880              		.thumb
 881              		.thumb_func
 883              	HAL_DBGMCU_EnableDBGStandbyMode:
 884              	.LFB178:
 538:Drivers/STM32U5xx_HAL_Driver/Src/stm32u5xx_hal.c **** 
 539:Drivers/STM32U5xx_HAL_Driver/Src/stm32u5xx_hal.c **** /**
 540:Drivers/STM32U5xx_HAL_Driver/Src/stm32u5xx_hal.c ****   * @brief  Enable the Debug Module during STANDBY mode.
 541:Drivers/STM32U5xx_HAL_Driver/Src/stm32u5xx_hal.c ****   * @retval None
 542:Drivers/STM32U5xx_HAL_Driver/Src/stm32u5xx_hal.c ****   */
 543:Drivers/STM32U5xx_HAL_Driver/Src/stm32u5xx_hal.c **** void HAL_DBGMCU_EnableDBGStandbyMode(void)
 544:Drivers/STM32U5xx_HAL_Driver/Src/stm32u5xx_hal.c **** {
 885              		.loc 1 544 1 is_stmt 1 view -0
 886              		.cfi_startproc
 887              		@ args = 0, pretend = 0, frame = 0
 888              		@ frame_needed = 0, uses_anonymous_args = 0
 889              		@ link register save eliminated.
 545:Drivers/STM32U5xx_HAL_Driver/Src/stm32u5xx_hal.c ****   SET_BIT(DBGMCU->CR, DBGMCU_CR_DBG_STANDBY);
 890              		.loc 1 545 3 view .LVU182
 891 0000 024A     		ldr	r2, .L79
 892 0002 5368     		ldr	r3, [r2, #4]
 893 0004 43F00403 		orr	r3, r3, #4
 894 0008 5360     		str	r3, [r2, #4]
 546:Drivers/STM32U5xx_HAL_Driver/Src/stm32u5xx_hal.c **** }
 895              		.loc 1 546 1 is_stmt 0 view .LVU183
 896 000a 7047     		bx	lr
 897              	.L80:
 898              		.align	2
 899              	.L79:
 900 000c 004004E0 		.word	-536592384
ARM GAS  /tmp/ccEI086O.s 			page 27


 901              		.cfi_endproc
 902              	.LFE178:
 904              		.section	.text.HAL_DBGMCU_DisableDBGStandbyMode,"ax",%progbits
 905              		.align	1
 906              		.global	HAL_DBGMCU_DisableDBGStandbyMode
 907              		.syntax unified
 908              		.thumb
 909              		.thumb_func
 911              	HAL_DBGMCU_DisableDBGStandbyMode:
 912              	.LFB179:
 547:Drivers/STM32U5xx_HAL_Driver/Src/stm32u5xx_hal.c **** 
 548:Drivers/STM32U5xx_HAL_Driver/Src/stm32u5xx_hal.c **** /**
 549:Drivers/STM32U5xx_HAL_Driver/Src/stm32u5xx_hal.c ****   * @brief  Disable the Debug Module during STANDBY mode.
 550:Drivers/STM32U5xx_HAL_Driver/Src/stm32u5xx_hal.c ****   * @retval None
 551:Drivers/STM32U5xx_HAL_Driver/Src/stm32u5xx_hal.c ****   */
 552:Drivers/STM32U5xx_HAL_Driver/Src/stm32u5xx_hal.c **** void HAL_DBGMCU_DisableDBGStandbyMode(void)
 553:Drivers/STM32U5xx_HAL_Driver/Src/stm32u5xx_hal.c **** {
 913              		.loc 1 553 1 is_stmt 1 view -0
 914              		.cfi_startproc
 915              		@ args = 0, pretend = 0, frame = 0
 916              		@ frame_needed = 0, uses_anonymous_args = 0
 917              		@ link register save eliminated.
 554:Drivers/STM32U5xx_HAL_Driver/Src/stm32u5xx_hal.c ****   CLEAR_BIT(DBGMCU->CR, DBGMCU_CR_DBG_STANDBY);
 918              		.loc 1 554 3 view .LVU185
 919 0000 024A     		ldr	r2, .L82
 920 0002 5368     		ldr	r3, [r2, #4]
 921 0004 23F00403 		bic	r3, r3, #4
 922 0008 5360     		str	r3, [r2, #4]
 555:Drivers/STM32U5xx_HAL_Driver/Src/stm32u5xx_hal.c **** }
 923              		.loc 1 555 1 is_stmt 0 view .LVU186
 924 000a 7047     		bx	lr
 925              	.L83:
 926              		.align	2
 927              	.L82:
 928 000c 004004E0 		.word	-536592384
 929              		.cfi_endproc
 930              	.LFE179:
 932              		.section	.text.HAL_SYSCFG_VREFBUF_VoltageScalingConfig,"ax",%progbits
 933              		.align	1
 934              		.global	HAL_SYSCFG_VREFBUF_VoltageScalingConfig
 935              		.syntax unified
 936              		.thumb
 937              		.thumb_func
 939              	HAL_SYSCFG_VREFBUF_VoltageScalingConfig:
 940              	.LVL32:
 941              	.LFB180:
 556:Drivers/STM32U5xx_HAL_Driver/Src/stm32u5xx_hal.c **** 
 557:Drivers/STM32U5xx_HAL_Driver/Src/stm32u5xx_hal.c **** /**
 558:Drivers/STM32U5xx_HAL_Driver/Src/stm32u5xx_hal.c ****   * @}
 559:Drivers/STM32U5xx_HAL_Driver/Src/stm32u5xx_hal.c ****   */
 560:Drivers/STM32U5xx_HAL_Driver/Src/stm32u5xx_hal.c **** 
 561:Drivers/STM32U5xx_HAL_Driver/Src/stm32u5xx_hal.c **** /** @defgroup HAL_Exported_Functions_Group4 HAL SYSCFG configuration functions
 562:Drivers/STM32U5xx_HAL_Driver/Src/stm32u5xx_hal.c ****   *  @brief    HAL SYSCFG configuration functions
 563:Drivers/STM32U5xx_HAL_Driver/Src/stm32u5xx_hal.c ****   *
 564:Drivers/STM32U5xx_HAL_Driver/Src/stm32u5xx_hal.c **** @verbatim
 565:Drivers/STM32U5xx_HAL_Driver/Src/stm32u5xx_hal.c ****  ===============================================================================
 566:Drivers/STM32U5xx_HAL_Driver/Src/stm32u5xx_hal.c ****                       ##### HAL SYSCFG configuration functions #####
ARM GAS  /tmp/ccEI086O.s 			page 28


 567:Drivers/STM32U5xx_HAL_Driver/Src/stm32u5xx_hal.c ****  ===============================================================================
 568:Drivers/STM32U5xx_HAL_Driver/Src/stm32u5xx_hal.c ****     [..]  This section provides functions allowing to:
 569:Drivers/STM32U5xx_HAL_Driver/Src/stm32u5xx_hal.c ****       (+) Configure the Voltage reference buffer
 570:Drivers/STM32U5xx_HAL_Driver/Src/stm32u5xx_hal.c ****       (+) Enable/Disable the Voltage reference buffer
 571:Drivers/STM32U5xx_HAL_Driver/Src/stm32u5xx_hal.c ****       (+) Enable/Disable the I/O analog switch voltage booster
 572:Drivers/STM32U5xx_HAL_Driver/Src/stm32u5xx_hal.c **** 
 573:Drivers/STM32U5xx_HAL_Driver/Src/stm32u5xx_hal.c **** @endverbatim
 574:Drivers/STM32U5xx_HAL_Driver/Src/stm32u5xx_hal.c ****   * @{
 575:Drivers/STM32U5xx_HAL_Driver/Src/stm32u5xx_hal.c ****   */
 576:Drivers/STM32U5xx_HAL_Driver/Src/stm32u5xx_hal.c **** 
 577:Drivers/STM32U5xx_HAL_Driver/Src/stm32u5xx_hal.c **** /**
 578:Drivers/STM32U5xx_HAL_Driver/Src/stm32u5xx_hal.c ****   * @brief Configure the internal voltage reference buffer voltage scale.
 579:Drivers/STM32U5xx_HAL_Driver/Src/stm32u5xx_hal.c ****   * @param  VoltageScaling: specifies the output voltage to achieve
 580:Drivers/STM32U5xx_HAL_Driver/Src/stm32u5xx_hal.c ****   *          This parameter can be one of the following values:
 581:Drivers/STM32U5xx_HAL_Driver/Src/stm32u5xx_hal.c ****   *            @arg SYSCFG_VREFBUF_VOLTAGE_SCALE0: VREF_OUT1 around 1.5 V.
 582:Drivers/STM32U5xx_HAL_Driver/Src/stm32u5xx_hal.c ****   *                                                This requires VDDA equal to or higher than 1.8 V
 583:Drivers/STM32U5xx_HAL_Driver/Src/stm32u5xx_hal.c ****   *            @arg SYSCFG_VREFBUF_VOLTAGE_SCALE1: VREF_OUT1 around 1.8 V.
 584:Drivers/STM32U5xx_HAL_Driver/Src/stm32u5xx_hal.c ****   *                                                This requires VDDA equal to or higher than 2.1 V
 585:Drivers/STM32U5xx_HAL_Driver/Src/stm32u5xx_hal.c ****   *            @arg SYSCFG_VREFBUF_VOLTAGE_SCALE2: VREF_OUT1 around 2.048 V.
 586:Drivers/STM32U5xx_HAL_Driver/Src/stm32u5xx_hal.c ****   *                                                This requires VDDA equal to or higher than 2.4 V
 587:Drivers/STM32U5xx_HAL_Driver/Src/stm32u5xx_hal.c ****   *            @arg SYSCFG_VREFBUF_VOLTAGE_SCALE3: VREF_OUT1 around 2.5 V.
 588:Drivers/STM32U5xx_HAL_Driver/Src/stm32u5xx_hal.c ****   *                                                This requires VDDA equal to or higher than 2.8 V
 589:Drivers/STM32U5xx_HAL_Driver/Src/stm32u5xx_hal.c ****   * @retval None
 590:Drivers/STM32U5xx_HAL_Driver/Src/stm32u5xx_hal.c ****   */
 591:Drivers/STM32U5xx_HAL_Driver/Src/stm32u5xx_hal.c **** void HAL_SYSCFG_VREFBUF_VoltageScalingConfig(uint32_t VoltageScaling)
 592:Drivers/STM32U5xx_HAL_Driver/Src/stm32u5xx_hal.c **** {
 942              		.loc 1 592 1 is_stmt 1 view -0
 943              		.cfi_startproc
 944              		@ args = 0, pretend = 0, frame = 0
 945              		@ frame_needed = 0, uses_anonymous_args = 0
 946              		@ link register save eliminated.
 593:Drivers/STM32U5xx_HAL_Driver/Src/stm32u5xx_hal.c ****   /* Check the parameters */
 594:Drivers/STM32U5xx_HAL_Driver/Src/stm32u5xx_hal.c ****   assert_param(IS_SYSCFG_VREFBUF_VOLTAGE_SCALE(VoltageScaling));
 947              		.loc 1 594 3 view .LVU188
 595:Drivers/STM32U5xx_HAL_Driver/Src/stm32u5xx_hal.c **** 
 596:Drivers/STM32U5xx_HAL_Driver/Src/stm32u5xx_hal.c ****   MODIFY_REG(VREFBUF->CSR, VREFBUF_CSR_VRS, VoltageScaling);
 948              		.loc 1 596 3 view .LVU189
 949 0000 034A     		ldr	r2, .L85
 950 0002 1368     		ldr	r3, [r2]
 951 0004 23F07003 		bic	r3, r3, #112
 952 0008 0343     		orrs	r3, r3, r0
 953 000a 1360     		str	r3, [r2]
 597:Drivers/STM32U5xx_HAL_Driver/Src/stm32u5xx_hal.c **** }
 954              		.loc 1 597 1 is_stmt 0 view .LVU190
 955 000c 7047     		bx	lr
 956              	.L86:
 957 000e 00BF     		.align	2
 958              	.L85:
 959 0010 00740046 		.word	1174434816
 960              		.cfi_endproc
 961              	.LFE180:
 963              		.section	.text.HAL_SYSCFG_VREFBUF_HighImpedanceConfig,"ax",%progbits
 964              		.align	1
 965              		.global	HAL_SYSCFG_VREFBUF_HighImpedanceConfig
 966              		.syntax unified
 967              		.thumb
 968              		.thumb_func
ARM GAS  /tmp/ccEI086O.s 			page 29


 970              	HAL_SYSCFG_VREFBUF_HighImpedanceConfig:
 971              	.LVL33:
 972              	.LFB181:
 598:Drivers/STM32U5xx_HAL_Driver/Src/stm32u5xx_hal.c **** 
 599:Drivers/STM32U5xx_HAL_Driver/Src/stm32u5xx_hal.c **** /**
 600:Drivers/STM32U5xx_HAL_Driver/Src/stm32u5xx_hal.c ****   * @brief Configure the internal voltage reference buffer high impedance mode.
 601:Drivers/STM32U5xx_HAL_Driver/Src/stm32u5xx_hal.c ****   * @param  Mode: specifies the high impedance mode
 602:Drivers/STM32U5xx_HAL_Driver/Src/stm32u5xx_hal.c ****   *          This parameter can be one of the following values:
 603:Drivers/STM32U5xx_HAL_Driver/Src/stm32u5xx_hal.c ****   *            @arg SYSCFG_VREFBUF_HIGH_IMPEDANCE_DISABLE: VREF+ pin is internally connect to VREFI
 604:Drivers/STM32U5xx_HAL_Driver/Src/stm32u5xx_hal.c ****   *            @arg SYSCFG_VREFBUF_HIGH_IMPEDANCE_ENABLE: VREF+ pin is high impedance.
 605:Drivers/STM32U5xx_HAL_Driver/Src/stm32u5xx_hal.c ****   * @retval None
 606:Drivers/STM32U5xx_HAL_Driver/Src/stm32u5xx_hal.c ****   */
 607:Drivers/STM32U5xx_HAL_Driver/Src/stm32u5xx_hal.c **** void HAL_SYSCFG_VREFBUF_HighImpedanceConfig(uint32_t Mode)
 608:Drivers/STM32U5xx_HAL_Driver/Src/stm32u5xx_hal.c **** {
 973              		.loc 1 608 1 is_stmt 1 view -0
 974              		.cfi_startproc
 975              		@ args = 0, pretend = 0, frame = 0
 976              		@ frame_needed = 0, uses_anonymous_args = 0
 977              		@ link register save eliminated.
 609:Drivers/STM32U5xx_HAL_Driver/Src/stm32u5xx_hal.c ****   /* Check the parameters */
 610:Drivers/STM32U5xx_HAL_Driver/Src/stm32u5xx_hal.c ****   assert_param(IS_SYSCFG_VREFBUF_HIGH_IMPEDANCE(Mode));
 978              		.loc 1 610 3 view .LVU192
 611:Drivers/STM32U5xx_HAL_Driver/Src/stm32u5xx_hal.c **** 
 612:Drivers/STM32U5xx_HAL_Driver/Src/stm32u5xx_hal.c ****   MODIFY_REG(VREFBUF->CSR, VREFBUF_CSR_HIZ, Mode);
 979              		.loc 1 612 3 view .LVU193
 980 0000 034A     		ldr	r2, .L88
 981 0002 1368     		ldr	r3, [r2]
 982 0004 23F00203 		bic	r3, r3, #2
 983 0008 0343     		orrs	r3, r3, r0
 984 000a 1360     		str	r3, [r2]
 613:Drivers/STM32U5xx_HAL_Driver/Src/stm32u5xx_hal.c **** }
 985              		.loc 1 613 1 is_stmt 0 view .LVU194
 986 000c 7047     		bx	lr
 987              	.L89:
 988 000e 00BF     		.align	2
 989              	.L88:
 990 0010 00740046 		.word	1174434816
 991              		.cfi_endproc
 992              	.LFE181:
 994              		.section	.text.HAL_SYSCFG_VREFBUF_TrimmingConfig,"ax",%progbits
 995              		.align	1
 996              		.global	HAL_SYSCFG_VREFBUF_TrimmingConfig
 997              		.syntax unified
 998              		.thumb
 999              		.thumb_func
 1001              	HAL_SYSCFG_VREFBUF_TrimmingConfig:
 1002              	.LVL34:
 1003              	.LFB182:
 614:Drivers/STM32U5xx_HAL_Driver/Src/stm32u5xx_hal.c **** 
 615:Drivers/STM32U5xx_HAL_Driver/Src/stm32u5xx_hal.c **** /**
 616:Drivers/STM32U5xx_HAL_Driver/Src/stm32u5xx_hal.c ****   * @brief  Tune the Internal Voltage Reference buffer (VREFBUF).
 617:Drivers/STM32U5xx_HAL_Driver/Src/stm32u5xx_hal.c ****   * @retval None
 618:Drivers/STM32U5xx_HAL_Driver/Src/stm32u5xx_hal.c ****   */
 619:Drivers/STM32U5xx_HAL_Driver/Src/stm32u5xx_hal.c **** void HAL_SYSCFG_VREFBUF_TrimmingConfig(uint32_t TrimmingValue)
 620:Drivers/STM32U5xx_HAL_Driver/Src/stm32u5xx_hal.c **** {
 1004              		.loc 1 620 1 is_stmt 1 view -0
 1005              		.cfi_startproc
ARM GAS  /tmp/ccEI086O.s 			page 30


 1006              		@ args = 0, pretend = 0, frame = 0
 1007              		@ frame_needed = 0, uses_anonymous_args = 0
 1008              		@ link register save eliminated.
 621:Drivers/STM32U5xx_HAL_Driver/Src/stm32u5xx_hal.c ****   /* Check the parameters */
 622:Drivers/STM32U5xx_HAL_Driver/Src/stm32u5xx_hal.c ****   assert_param(IS_SYSCFG_VREFBUF_TRIMMING(TrimmingValue));
 1009              		.loc 1 622 3 view .LVU196
 623:Drivers/STM32U5xx_HAL_Driver/Src/stm32u5xx_hal.c **** 
 624:Drivers/STM32U5xx_HAL_Driver/Src/stm32u5xx_hal.c ****   MODIFY_REG(VREFBUF->CCR, VREFBUF_CCR_TRIM, TrimmingValue);
 1010              		.loc 1 624 3 view .LVU197
 1011 0000 034A     		ldr	r2, .L91
 1012 0002 5368     		ldr	r3, [r2, #4]
 1013 0004 23F03F03 		bic	r3, r3, #63
 1014 0008 0343     		orrs	r3, r3, r0
 1015 000a 5360     		str	r3, [r2, #4]
 625:Drivers/STM32U5xx_HAL_Driver/Src/stm32u5xx_hal.c **** }
 1016              		.loc 1 625 1 is_stmt 0 view .LVU198
 1017 000c 7047     		bx	lr
 1018              	.L92:
 1019 000e 00BF     		.align	2
 1020              	.L91:
 1021 0010 00740046 		.word	1174434816
 1022              		.cfi_endproc
 1023              	.LFE182:
 1025              		.section	.text.HAL_SYSCFG_EnableVREFBUF,"ax",%progbits
 1026              		.align	1
 1027              		.global	HAL_SYSCFG_EnableVREFBUF
 1028              		.syntax unified
 1029              		.thumb
 1030              		.thumb_func
 1032              	HAL_SYSCFG_EnableVREFBUF:
 1033              	.LFB183:
 626:Drivers/STM32U5xx_HAL_Driver/Src/stm32u5xx_hal.c **** 
 627:Drivers/STM32U5xx_HAL_Driver/Src/stm32u5xx_hal.c **** /**
 628:Drivers/STM32U5xx_HAL_Driver/Src/stm32u5xx_hal.c ****   * @brief  Enable the Internal Voltage Reference buffer (VREFBUF).
 629:Drivers/STM32U5xx_HAL_Driver/Src/stm32u5xx_hal.c ****   * @retval HAL_OK/HAL_TIMEOUT
 630:Drivers/STM32U5xx_HAL_Driver/Src/stm32u5xx_hal.c ****   */
 631:Drivers/STM32U5xx_HAL_Driver/Src/stm32u5xx_hal.c **** HAL_StatusTypeDef HAL_SYSCFG_EnableVREFBUF(void)
 632:Drivers/STM32U5xx_HAL_Driver/Src/stm32u5xx_hal.c **** {
 1034              		.loc 1 632 1 is_stmt 1 view -0
 1035              		.cfi_startproc
 1036              		@ args = 0, pretend = 0, frame = 0
 1037              		@ frame_needed = 0, uses_anonymous_args = 0
 1038 0000 10B5     		push	{r4, lr}
 1039              	.LCFI5:
 1040              		.cfi_def_cfa_offset 8
 1041              		.cfi_offset 4, -8
 1042              		.cfi_offset 14, -4
 633:Drivers/STM32U5xx_HAL_Driver/Src/stm32u5xx_hal.c ****   uint32_t  tickstart;
 1043              		.loc 1 633 3 view .LVU200
 634:Drivers/STM32U5xx_HAL_Driver/Src/stm32u5xx_hal.c **** 
 635:Drivers/STM32U5xx_HAL_Driver/Src/stm32u5xx_hal.c ****   SET_BIT(VREFBUF->CSR, VREFBUF_CSR_ENVR);
 1044              		.loc 1 635 3 view .LVU201
 1045 0002 0B4A     		ldr	r2, .L100
 1046 0004 1368     		ldr	r3, [r2]
 1047 0006 43F00103 		orr	r3, r3, #1
 1048 000a 1360     		str	r3, [r2]
 636:Drivers/STM32U5xx_HAL_Driver/Src/stm32u5xx_hal.c **** 
ARM GAS  /tmp/ccEI086O.s 			page 31


 637:Drivers/STM32U5xx_HAL_Driver/Src/stm32u5xx_hal.c ****   /* Get Start Tick*/
 638:Drivers/STM32U5xx_HAL_Driver/Src/stm32u5xx_hal.c ****   tickstart = HAL_GetTick();
 1049              		.loc 1 638 3 view .LVU202
 1050              		.loc 1 638 15 is_stmt 0 view .LVU203
 1051 000c FFF7FEFF 		bl	HAL_GetTick
 1052              	.LVL35:
 1053 0010 0446     		mov	r4, r0
 1054              	.LVL36:
 639:Drivers/STM32U5xx_HAL_Driver/Src/stm32u5xx_hal.c **** 
 640:Drivers/STM32U5xx_HAL_Driver/Src/stm32u5xx_hal.c ****   /* Wait for VRR bit  */
 641:Drivers/STM32U5xx_HAL_Driver/Src/stm32u5xx_hal.c ****   while (READ_BIT(VREFBUF->CSR, VREFBUF_CSR_VRR) == 0UL)
 1055              		.loc 1 641 3 is_stmt 1 view .LVU204
 1056              	.L94:
 1057              		.loc 1 641 50 view .LVU205
 1058              		.loc 1 641 10 is_stmt 0 view .LVU206
 1059 0012 074B     		ldr	r3, .L100
 1060 0014 1B68     		ldr	r3, [r3]
 1061              		.loc 1 641 50 view .LVU207
 1062 0016 13F0080F 		tst	r3, #8
 1063 001a 06D1     		bne	.L99
 642:Drivers/STM32U5xx_HAL_Driver/Src/stm32u5xx_hal.c ****   {
 643:Drivers/STM32U5xx_HAL_Driver/Src/stm32u5xx_hal.c ****     if ((HAL_GetTick() - tickstart) > VREFBUF_TIMEOUT_VALUE)
 1064              		.loc 1 643 5 is_stmt 1 view .LVU208
 1065              		.loc 1 643 10 is_stmt 0 view .LVU209
 1066 001c FFF7FEFF 		bl	HAL_GetTick
 1067              	.LVL37:
 1068              		.loc 1 643 24 view .LVU210
 1069 0020 001B     		subs	r0, r0, r4
 1070              		.loc 1 643 8 view .LVU211
 1071 0022 0A28     		cmp	r0, #10
 1072 0024 F5D9     		bls	.L94
 644:Drivers/STM32U5xx_HAL_Driver/Src/stm32u5xx_hal.c ****     {
 645:Drivers/STM32U5xx_HAL_Driver/Src/stm32u5xx_hal.c ****       return HAL_TIMEOUT;
 1073              		.loc 1 645 14 view .LVU212
 1074 0026 0320     		movs	r0, #3
 1075 0028 00E0     		b	.L95
 1076              	.L99:
 646:Drivers/STM32U5xx_HAL_Driver/Src/stm32u5xx_hal.c ****     }
 647:Drivers/STM32U5xx_HAL_Driver/Src/stm32u5xx_hal.c ****   }
 648:Drivers/STM32U5xx_HAL_Driver/Src/stm32u5xx_hal.c **** 
 649:Drivers/STM32U5xx_HAL_Driver/Src/stm32u5xx_hal.c ****   return HAL_OK;
 1077              		.loc 1 649 10 view .LVU213
 1078 002a 0020     		movs	r0, #0
 1079              	.L95:
 650:Drivers/STM32U5xx_HAL_Driver/Src/stm32u5xx_hal.c **** }
 1080              		.loc 1 650 1 view .LVU214
 1081 002c 10BD     		pop	{r4, pc}
 1082              	.LVL38:
 1083              	.L101:
 1084              		.loc 1 650 1 view .LVU215
 1085 002e 00BF     		.align	2
 1086              	.L100:
 1087 0030 00740046 		.word	1174434816
 1088              		.cfi_endproc
 1089              	.LFE183:
 1091              		.section	.text.HAL_SYSCFG_DisableVREFBUF,"ax",%progbits
 1092              		.align	1
ARM GAS  /tmp/ccEI086O.s 			page 32


 1093              		.global	HAL_SYSCFG_DisableVREFBUF
 1094              		.syntax unified
 1095              		.thumb
 1096              		.thumb_func
 1098              	HAL_SYSCFG_DisableVREFBUF:
 1099              	.LFB184:
 651:Drivers/STM32U5xx_HAL_Driver/Src/stm32u5xx_hal.c **** 
 652:Drivers/STM32U5xx_HAL_Driver/Src/stm32u5xx_hal.c **** /**
 653:Drivers/STM32U5xx_HAL_Driver/Src/stm32u5xx_hal.c ****   * @brief  Disable the Internal Voltage Reference buffer (VREFBUF).
 654:Drivers/STM32U5xx_HAL_Driver/Src/stm32u5xx_hal.c ****   *
 655:Drivers/STM32U5xx_HAL_Driver/Src/stm32u5xx_hal.c ****   * @retval None
 656:Drivers/STM32U5xx_HAL_Driver/Src/stm32u5xx_hal.c ****   */
 657:Drivers/STM32U5xx_HAL_Driver/Src/stm32u5xx_hal.c **** void HAL_SYSCFG_DisableVREFBUF(void)
 658:Drivers/STM32U5xx_HAL_Driver/Src/stm32u5xx_hal.c **** {
 1100              		.loc 1 658 1 is_stmt 1 view -0
 1101              		.cfi_startproc
 1102              		@ args = 0, pretend = 0, frame = 0
 1103              		@ frame_needed = 0, uses_anonymous_args = 0
 1104              		@ link register save eliminated.
 659:Drivers/STM32U5xx_HAL_Driver/Src/stm32u5xx_hal.c ****   CLEAR_BIT(VREFBUF->CSR, VREFBUF_CSR_ENVR);
 1105              		.loc 1 659 3 view .LVU217
 1106 0000 024A     		ldr	r2, .L103
 1107 0002 1368     		ldr	r3, [r2]
 1108 0004 23F00103 		bic	r3, r3, #1
 1109 0008 1360     		str	r3, [r2]
 660:Drivers/STM32U5xx_HAL_Driver/Src/stm32u5xx_hal.c **** }
 1110              		.loc 1 660 1 is_stmt 0 view .LVU218
 1111 000a 7047     		bx	lr
 1112              	.L104:
 1113              		.align	2
 1114              	.L103:
 1115 000c 00740046 		.word	1174434816
 1116              		.cfi_endproc
 1117              	.LFE184:
 1119              		.section	.text.HAL_SYSCFG_EnableIOAnalogSwitchBooster,"ax",%progbits
 1120              		.align	1
 1121              		.global	HAL_SYSCFG_EnableIOAnalogSwitchBooster
 1122              		.syntax unified
 1123              		.thumb
 1124              		.thumb_func
 1126              	HAL_SYSCFG_EnableIOAnalogSwitchBooster:
 1127              	.LFB185:
 661:Drivers/STM32U5xx_HAL_Driver/Src/stm32u5xx_hal.c **** 
 662:Drivers/STM32U5xx_HAL_Driver/Src/stm32u5xx_hal.c **** /**
 663:Drivers/STM32U5xx_HAL_Driver/Src/stm32u5xx_hal.c ****   * @brief  Enable the I/O analog switch voltage booster
 664:Drivers/STM32U5xx_HAL_Driver/Src/stm32u5xx_hal.c ****   *
 665:Drivers/STM32U5xx_HAL_Driver/Src/stm32u5xx_hal.c ****   * @retval None
 666:Drivers/STM32U5xx_HAL_Driver/Src/stm32u5xx_hal.c ****   */
 667:Drivers/STM32U5xx_HAL_Driver/Src/stm32u5xx_hal.c **** void HAL_SYSCFG_EnableIOAnalogSwitchBooster(void)
 668:Drivers/STM32U5xx_HAL_Driver/Src/stm32u5xx_hal.c **** {
 1128              		.loc 1 668 1 is_stmt 1 view -0
 1129              		.cfi_startproc
 1130              		@ args = 0, pretend = 0, frame = 0
 1131              		@ frame_needed = 0, uses_anonymous_args = 0
 1132              		@ link register save eliminated.
 669:Drivers/STM32U5xx_HAL_Driver/Src/stm32u5xx_hal.c ****   SET_BIT(SYSCFG->CFGR1, SYSCFG_CFGR1_BOOSTEN);
 1133              		.loc 1 669 3 view .LVU220
ARM GAS  /tmp/ccEI086O.s 			page 33


 1134 0000 024A     		ldr	r2, .L106
 1135 0002 5368     		ldr	r3, [r2, #4]
 1136 0004 43F48073 		orr	r3, r3, #256
 1137 0008 5360     		str	r3, [r2, #4]
 670:Drivers/STM32U5xx_HAL_Driver/Src/stm32u5xx_hal.c **** }
 1138              		.loc 1 670 1 is_stmt 0 view .LVU221
 1139 000a 7047     		bx	lr
 1140              	.L107:
 1141              		.align	2
 1142              	.L106:
 1143 000c 00040046 		.word	1174406144
 1144              		.cfi_endproc
 1145              	.LFE185:
 1147              		.section	.text.HAL_SYSCFG_DisableIOAnalogSwitchBooster,"ax",%progbits
 1148              		.align	1
 1149              		.global	HAL_SYSCFG_DisableIOAnalogSwitchBooster
 1150              		.syntax unified
 1151              		.thumb
 1152              		.thumb_func
 1154              	HAL_SYSCFG_DisableIOAnalogSwitchBooster:
 1155              	.LFB186:
 671:Drivers/STM32U5xx_HAL_Driver/Src/stm32u5xx_hal.c **** 
 672:Drivers/STM32U5xx_HAL_Driver/Src/stm32u5xx_hal.c **** /**
 673:Drivers/STM32U5xx_HAL_Driver/Src/stm32u5xx_hal.c ****   * @brief  Disable the I/O analog switch voltage booster
 674:Drivers/STM32U5xx_HAL_Driver/Src/stm32u5xx_hal.c ****   *
 675:Drivers/STM32U5xx_HAL_Driver/Src/stm32u5xx_hal.c ****   * @retval None
 676:Drivers/STM32U5xx_HAL_Driver/Src/stm32u5xx_hal.c ****   */
 677:Drivers/STM32U5xx_HAL_Driver/Src/stm32u5xx_hal.c **** void HAL_SYSCFG_DisableIOAnalogSwitchBooster(void)
 678:Drivers/STM32U5xx_HAL_Driver/Src/stm32u5xx_hal.c **** {
 1156              		.loc 1 678 1 is_stmt 1 view -0
 1157              		.cfi_startproc
 1158              		@ args = 0, pretend = 0, frame = 0
 1159              		@ frame_needed = 0, uses_anonymous_args = 0
 1160              		@ link register save eliminated.
 679:Drivers/STM32U5xx_HAL_Driver/Src/stm32u5xx_hal.c ****   CLEAR_BIT(SYSCFG->CFGR1, SYSCFG_CFGR1_BOOSTEN);
 1161              		.loc 1 679 3 view .LVU223
 1162 0000 024A     		ldr	r2, .L109
 1163 0002 5368     		ldr	r3, [r2, #4]
 1164 0004 23F48073 		bic	r3, r3, #256
 1165 0008 5360     		str	r3, [r2, #4]
 680:Drivers/STM32U5xx_HAL_Driver/Src/stm32u5xx_hal.c **** }
 1166              		.loc 1 680 1 is_stmt 0 view .LVU224
 1167 000a 7047     		bx	lr
 1168              	.L110:
 1169              		.align	2
 1170              	.L109:
 1171 000c 00040046 		.word	1174406144
 1172              		.cfi_endproc
 1173              	.LFE186:
 1175              		.section	.text.HAL_SYSCFG_EnableIOAnalogSwitchVoltageSelection,"ax",%progbits
 1176              		.align	1
 1177              		.global	HAL_SYSCFG_EnableIOAnalogSwitchVoltageSelection
 1178              		.syntax unified
 1179              		.thumb
 1180              		.thumb_func
 1182              	HAL_SYSCFG_EnableIOAnalogSwitchVoltageSelection:
 1183              	.LFB187:
ARM GAS  /tmp/ccEI086O.s 			page 34


 681:Drivers/STM32U5xx_HAL_Driver/Src/stm32u5xx_hal.c **** 
 682:Drivers/STM32U5xx_HAL_Driver/Src/stm32u5xx_hal.c **** /**
 683:Drivers/STM32U5xx_HAL_Driver/Src/stm32u5xx_hal.c ****   * @brief  Enable the I/O analog switch voltage selection
 684:Drivers/STM32U5xx_HAL_Driver/Src/stm32u5xx_hal.c ****   *
 685:Drivers/STM32U5xx_HAL_Driver/Src/stm32u5xx_hal.c ****   * @retval None
 686:Drivers/STM32U5xx_HAL_Driver/Src/stm32u5xx_hal.c ****   */
 687:Drivers/STM32U5xx_HAL_Driver/Src/stm32u5xx_hal.c **** void HAL_SYSCFG_EnableIOAnalogSwitchVoltageSelection(void)
 688:Drivers/STM32U5xx_HAL_Driver/Src/stm32u5xx_hal.c **** {
 1184              		.loc 1 688 1 is_stmt 1 view -0
 1185              		.cfi_startproc
 1186              		@ args = 0, pretend = 0, frame = 0
 1187              		@ frame_needed = 0, uses_anonymous_args = 0
 1188              		@ link register save eliminated.
 689:Drivers/STM32U5xx_HAL_Driver/Src/stm32u5xx_hal.c ****   SET_BIT(SYSCFG->CFGR1, SYSCFG_CFGR1_ANASWVDD);
 1189              		.loc 1 689 3 view .LVU226
 1190 0000 024A     		ldr	r2, .L112
 1191 0002 5368     		ldr	r3, [r2, #4]
 1192 0004 43F40073 		orr	r3, r3, #512
 1193 0008 5360     		str	r3, [r2, #4]
 690:Drivers/STM32U5xx_HAL_Driver/Src/stm32u5xx_hal.c **** }
 1194              		.loc 1 690 1 is_stmt 0 view .LVU227
 1195 000a 7047     		bx	lr
 1196              	.L113:
 1197              		.align	2
 1198              	.L112:
 1199 000c 00040046 		.word	1174406144
 1200              		.cfi_endproc
 1201              	.LFE187:
 1203              		.section	.text.HAL_SYSCFG_DisableIOAnalogSwitchVoltageSelection,"ax",%progbits
 1204              		.align	1
 1205              		.global	HAL_SYSCFG_DisableIOAnalogSwitchVoltageSelection
 1206              		.syntax unified
 1207              		.thumb
 1208              		.thumb_func
 1210              	HAL_SYSCFG_DisableIOAnalogSwitchVoltageSelection:
 1211              	.LFB188:
 691:Drivers/STM32U5xx_HAL_Driver/Src/stm32u5xx_hal.c **** 
 692:Drivers/STM32U5xx_HAL_Driver/Src/stm32u5xx_hal.c **** /**
 693:Drivers/STM32U5xx_HAL_Driver/Src/stm32u5xx_hal.c ****   * @brief  Disable the I/O analog switch voltage selection
 694:Drivers/STM32U5xx_HAL_Driver/Src/stm32u5xx_hal.c ****   *
 695:Drivers/STM32U5xx_HAL_Driver/Src/stm32u5xx_hal.c ****   * @retval None
 696:Drivers/STM32U5xx_HAL_Driver/Src/stm32u5xx_hal.c ****   */
 697:Drivers/STM32U5xx_HAL_Driver/Src/stm32u5xx_hal.c **** void HAL_SYSCFG_DisableIOAnalogSwitchVoltageSelection(void)
 698:Drivers/STM32U5xx_HAL_Driver/Src/stm32u5xx_hal.c **** {
 1212              		.loc 1 698 1 is_stmt 1 view -0
 1213              		.cfi_startproc
 1214              		@ args = 0, pretend = 0, frame = 0
 1215              		@ frame_needed = 0, uses_anonymous_args = 0
 1216              		@ link register save eliminated.
 699:Drivers/STM32U5xx_HAL_Driver/Src/stm32u5xx_hal.c ****   CLEAR_BIT(SYSCFG->CFGR1, SYSCFG_CFGR1_ANASWVDD);
 1217              		.loc 1 699 3 view .LVU229
 1218 0000 024A     		ldr	r2, .L115
 1219 0002 5368     		ldr	r3, [r2, #4]
 1220 0004 23F40073 		bic	r3, r3, #512
 1221 0008 5360     		str	r3, [r2, #4]
 700:Drivers/STM32U5xx_HAL_Driver/Src/stm32u5xx_hal.c **** }
 1222              		.loc 1 700 1 is_stmt 0 view .LVU230
ARM GAS  /tmp/ccEI086O.s 			page 35


 1223 000a 7047     		bx	lr
 1224              	.L116:
 1225              		.align	2
 1226              	.L115:
 1227 000c 00040046 		.word	1174406144
 1228              		.cfi_endproc
 1229              	.LFE188:
 1231              		.section	.text.HAL_SYSCFG_EnableVddCompensationCell,"ax",%progbits
 1232              		.align	1
 1233              		.global	HAL_SYSCFG_EnableVddCompensationCell
 1234              		.syntax unified
 1235              		.thumb
 1236              		.thumb_func
 1238              	HAL_SYSCFG_EnableVddCompensationCell:
 1239              	.LFB189:
 701:Drivers/STM32U5xx_HAL_Driver/Src/stm32u5xx_hal.c **** 
 702:Drivers/STM32U5xx_HAL_Driver/Src/stm32u5xx_hal.c **** #if defined(SYSCFG_CFGR1_SRAMCACHED)
 703:Drivers/STM32U5xx_HAL_Driver/Src/stm32u5xx_hal.c **** /**
 704:Drivers/STM32U5xx_HAL_Driver/Src/stm32u5xx_hal.c ****   * @brief  Enable the Cacheability of internal SRAMx by DCACHE2
 705:Drivers/STM32U5xx_HAL_Driver/Src/stm32u5xx_hal.c ****   *
 706:Drivers/STM32U5xx_HAL_Driver/Src/stm32u5xx_hal.c ****   * @retval None
 707:Drivers/STM32U5xx_HAL_Driver/Src/stm32u5xx_hal.c ****   */
 708:Drivers/STM32U5xx_HAL_Driver/Src/stm32u5xx_hal.c **** void HAL_SYSCFG_EnableSRAMCached(void)
 709:Drivers/STM32U5xx_HAL_Driver/Src/stm32u5xx_hal.c **** {
 710:Drivers/STM32U5xx_HAL_Driver/Src/stm32u5xx_hal.c ****   SET_BIT(SYSCFG->CFGR1, SYSCFG_CFGR1_SRAMCACHED);
 711:Drivers/STM32U5xx_HAL_Driver/Src/stm32u5xx_hal.c **** }
 712:Drivers/STM32U5xx_HAL_Driver/Src/stm32u5xx_hal.c **** 
 713:Drivers/STM32U5xx_HAL_Driver/Src/stm32u5xx_hal.c **** /**
 714:Drivers/STM32U5xx_HAL_Driver/Src/stm32u5xx_hal.c ****   * @brief  Disable the Cacheability of internal SRAMx by DCACHE2
 715:Drivers/STM32U5xx_HAL_Driver/Src/stm32u5xx_hal.c ****   *
 716:Drivers/STM32U5xx_HAL_Driver/Src/stm32u5xx_hal.c ****   * @retval None
 717:Drivers/STM32U5xx_HAL_Driver/Src/stm32u5xx_hal.c ****   */
 718:Drivers/STM32U5xx_HAL_Driver/Src/stm32u5xx_hal.c **** void HAL_SYSCFG_DisableSRAMCached(void)
 719:Drivers/STM32U5xx_HAL_Driver/Src/stm32u5xx_hal.c **** {
 720:Drivers/STM32U5xx_HAL_Driver/Src/stm32u5xx_hal.c ****   CLEAR_BIT(SYSCFG->CFGR1, SYSCFG_CFGR1_SRAMCACHED);
 721:Drivers/STM32U5xx_HAL_Driver/Src/stm32u5xx_hal.c **** }
 722:Drivers/STM32U5xx_HAL_Driver/Src/stm32u5xx_hal.c **** #endif /* SYSCFG_CFGR1_SRAMCACHED */
 723:Drivers/STM32U5xx_HAL_Driver/Src/stm32u5xx_hal.c **** 
 724:Drivers/STM32U5xx_HAL_Driver/Src/stm32u5xx_hal.c **** /**
 725:Drivers/STM32U5xx_HAL_Driver/Src/stm32u5xx_hal.c ****   * @brief  Enable the Compensation Cell of GPIO supplied by VDD
 726:Drivers/STM32U5xx_HAL_Driver/Src/stm32u5xx_hal.c ****   * @rmtoll CCCSR   EN1    HAL_SYSCFG_EnableVddCompensationCell
 727:Drivers/STM32U5xx_HAL_Driver/Src/stm32u5xx_hal.c ****   * @note   The vdd compensation cell can be used only when the device supply
 728:Drivers/STM32U5xx_HAL_Driver/Src/stm32u5xx_hal.c ****   *         voltage ranges from 1.71 to 3.6 V
 729:Drivers/STM32U5xx_HAL_Driver/Src/stm32u5xx_hal.c ****   * @retval None
 730:Drivers/STM32U5xx_HAL_Driver/Src/stm32u5xx_hal.c ****   */
 731:Drivers/STM32U5xx_HAL_Driver/Src/stm32u5xx_hal.c **** void HAL_SYSCFG_EnableVddCompensationCell(void)
 732:Drivers/STM32U5xx_HAL_Driver/Src/stm32u5xx_hal.c **** {
 1240              		.loc 1 732 1 is_stmt 1 view -0
 1241              		.cfi_startproc
 1242              		@ args = 0, pretend = 0, frame = 0
 1243              		@ frame_needed = 0, uses_anonymous_args = 0
 1244              		@ link register save eliminated.
 733:Drivers/STM32U5xx_HAL_Driver/Src/stm32u5xx_hal.c ****   SET_BIT(SYSCFG->CCCSR, SYSCFG_CCCSR_EN1);
 1245              		.loc 1 733 3 view .LVU232
 1246 0000 024A     		ldr	r2, .L118
 1247 0002 D369     		ldr	r3, [r2, #28]
 1248 0004 43F00103 		orr	r3, r3, #1
ARM GAS  /tmp/ccEI086O.s 			page 36


 1249 0008 D361     		str	r3, [r2, #28]
 734:Drivers/STM32U5xx_HAL_Driver/Src/stm32u5xx_hal.c **** }
 1250              		.loc 1 734 1 is_stmt 0 view .LVU233
 1251 000a 7047     		bx	lr
 1252              	.L119:
 1253              		.align	2
 1254              	.L118:
 1255 000c 00040046 		.word	1174406144
 1256              		.cfi_endproc
 1257              	.LFE189:
 1259              		.section	.text.HAL_SYSCFG_EnableVddIO2CompensationCell,"ax",%progbits
 1260              		.align	1
 1261              		.global	HAL_SYSCFG_EnableVddIO2CompensationCell
 1262              		.syntax unified
 1263              		.thumb
 1264              		.thumb_func
 1266              	HAL_SYSCFG_EnableVddIO2CompensationCell:
 1267              	.LFB190:
 735:Drivers/STM32U5xx_HAL_Driver/Src/stm32u5xx_hal.c **** 
 736:Drivers/STM32U5xx_HAL_Driver/Src/stm32u5xx_hal.c **** /**
 737:Drivers/STM32U5xx_HAL_Driver/Src/stm32u5xx_hal.c ****   * @brief  Enable the Compensation Cell of GPIO supplied by VDDIO2
 738:Drivers/STM32U5xx_HAL_Driver/Src/stm32u5xx_hal.c ****   * @rmtoll CCCSR   EN2    HAL_SYSCFG_EnableVddIO2CompensationCell
 739:Drivers/STM32U5xx_HAL_Driver/Src/stm32u5xx_hal.c ****   * @note   The Vdd I/O compensation cell can be used only when the device supply
 740:Drivers/STM32U5xx_HAL_Driver/Src/stm32u5xx_hal.c ****   *         voltage ranges from 1.08 to 3.6 V
 741:Drivers/STM32U5xx_HAL_Driver/Src/stm32u5xx_hal.c ****   * @retval None
 742:Drivers/STM32U5xx_HAL_Driver/Src/stm32u5xx_hal.c ****   */
 743:Drivers/STM32U5xx_HAL_Driver/Src/stm32u5xx_hal.c **** void HAL_SYSCFG_EnableVddIO2CompensationCell(void)
 744:Drivers/STM32U5xx_HAL_Driver/Src/stm32u5xx_hal.c **** {
 1268              		.loc 1 744 1 is_stmt 1 view -0
 1269              		.cfi_startproc
 1270              		@ args = 0, pretend = 0, frame = 0
 1271              		@ frame_needed = 0, uses_anonymous_args = 0
 1272              		@ link register save eliminated.
 745:Drivers/STM32U5xx_HAL_Driver/Src/stm32u5xx_hal.c ****   SET_BIT(SYSCFG->CCCSR, SYSCFG_CCCSR_EN2);
 1273              		.loc 1 745 3 view .LVU235
 1274 0000 024A     		ldr	r2, .L121
 1275 0002 D369     		ldr	r3, [r2, #28]
 1276 0004 43F00403 		orr	r3, r3, #4
 1277 0008 D361     		str	r3, [r2, #28]
 746:Drivers/STM32U5xx_HAL_Driver/Src/stm32u5xx_hal.c **** }
 1278              		.loc 1 746 1 is_stmt 0 view .LVU236
 1279 000a 7047     		bx	lr
 1280              	.L122:
 1281              		.align	2
 1282              	.L121:
 1283 000c 00040046 		.word	1174406144
 1284              		.cfi_endproc
 1285              	.LFE190:
 1287              		.section	.text.HAL_SYSCFG_DisableVddCompensationCell,"ax",%progbits
 1288              		.align	1
 1289              		.global	HAL_SYSCFG_DisableVddCompensationCell
 1290              		.syntax unified
 1291              		.thumb
 1292              		.thumb_func
 1294              	HAL_SYSCFG_DisableVddCompensationCell:
 1295              	.LFB191:
 747:Drivers/STM32U5xx_HAL_Driver/Src/stm32u5xx_hal.c **** 
ARM GAS  /tmp/ccEI086O.s 			page 37


 748:Drivers/STM32U5xx_HAL_Driver/Src/stm32u5xx_hal.c **** #if defined(SYSCFG_CCCSR_EN3)
 749:Drivers/STM32U5xx_HAL_Driver/Src/stm32u5xx_hal.c **** /**
 750:Drivers/STM32U5xx_HAL_Driver/Src/stm32u5xx_hal.c ****   * @brief  Enable the Compensation Cell of HSPI IO supplied by VDD
 751:Drivers/STM32U5xx_HAL_Driver/Src/stm32u5xx_hal.c ****   * @rmtoll CCCSR   EN3    HAL_SYSCFG_EnableVddHSPICompensationCell
 752:Drivers/STM32U5xx_HAL_Driver/Src/stm32u5xx_hal.c ****   * @retval None
 753:Drivers/STM32U5xx_HAL_Driver/Src/stm32u5xx_hal.c ****   */
 754:Drivers/STM32U5xx_HAL_Driver/Src/stm32u5xx_hal.c **** void HAL_SYSCFG_EnableVddHSPICompensationCell(void)
 755:Drivers/STM32U5xx_HAL_Driver/Src/stm32u5xx_hal.c **** {
 756:Drivers/STM32U5xx_HAL_Driver/Src/stm32u5xx_hal.c ****   SET_BIT(SYSCFG->CCCSR, SYSCFG_CCCSR_EN3);
 757:Drivers/STM32U5xx_HAL_Driver/Src/stm32u5xx_hal.c **** }
 758:Drivers/STM32U5xx_HAL_Driver/Src/stm32u5xx_hal.c **** #endif /* SYSCFG_CCCSR_EN3 */
 759:Drivers/STM32U5xx_HAL_Driver/Src/stm32u5xx_hal.c **** /**
 760:Drivers/STM32U5xx_HAL_Driver/Src/stm32u5xx_hal.c ****   * @brief  Disable the Compensation Cell of GPIO supplied by VDD
 761:Drivers/STM32U5xx_HAL_Driver/Src/stm32u5xx_hal.c ****   * @rmtoll CCCSR   EN1    HAL_SYSCFG_DisableVddCompensationCell
 762:Drivers/STM32U5xx_HAL_Driver/Src/stm32u5xx_hal.c ****   * @note   The Vdd compensation cell can be used only when the device supply
 763:Drivers/STM32U5xx_HAL_Driver/Src/stm32u5xx_hal.c ****   *         voltage ranges from 1.71 to 3.6 V
 764:Drivers/STM32U5xx_HAL_Driver/Src/stm32u5xx_hal.c ****   * @retval None
 765:Drivers/STM32U5xx_HAL_Driver/Src/stm32u5xx_hal.c ****   */
 766:Drivers/STM32U5xx_HAL_Driver/Src/stm32u5xx_hal.c **** void HAL_SYSCFG_DisableVddCompensationCell(void)
 767:Drivers/STM32U5xx_HAL_Driver/Src/stm32u5xx_hal.c **** {
 1296              		.loc 1 767 1 is_stmt 1 view -0
 1297              		.cfi_startproc
 1298              		@ args = 0, pretend = 0, frame = 0
 1299              		@ frame_needed = 0, uses_anonymous_args = 0
 1300              		@ link register save eliminated.
 768:Drivers/STM32U5xx_HAL_Driver/Src/stm32u5xx_hal.c ****   CLEAR_BIT(SYSCFG->CCCSR, SYSCFG_CCCSR_EN1);
 1301              		.loc 1 768 3 view .LVU238
 1302 0000 024A     		ldr	r2, .L124
 1303 0002 D369     		ldr	r3, [r2, #28]
 1304 0004 23F00103 		bic	r3, r3, #1
 1305 0008 D361     		str	r3, [r2, #28]
 769:Drivers/STM32U5xx_HAL_Driver/Src/stm32u5xx_hal.c **** }
 1306              		.loc 1 769 1 is_stmt 0 view .LVU239
 1307 000a 7047     		bx	lr
 1308              	.L125:
 1309              		.align	2
 1310              	.L124:
 1311 000c 00040046 		.word	1174406144
 1312              		.cfi_endproc
 1313              	.LFE191:
 1315              		.section	.text.HAL_SYSCFG_DisableVddIO2CompensationCell,"ax",%progbits
 1316              		.align	1
 1317              		.global	HAL_SYSCFG_DisableVddIO2CompensationCell
 1318              		.syntax unified
 1319              		.thumb
 1320              		.thumb_func
 1322              	HAL_SYSCFG_DisableVddIO2CompensationCell:
 1323              	.LFB192:
 770:Drivers/STM32U5xx_HAL_Driver/Src/stm32u5xx_hal.c **** 
 771:Drivers/STM32U5xx_HAL_Driver/Src/stm32u5xx_hal.c **** /**
 772:Drivers/STM32U5xx_HAL_Driver/Src/stm32u5xx_hal.c ****   * @brief  Disable the Compensation Cell of GPIO supplied by VDDIO2
 773:Drivers/STM32U5xx_HAL_Driver/Src/stm32u5xx_hal.c ****   * @rmtoll CCCSR   EN2    HAL_SYSCFG_DisableVddIO2CompensationCell
 774:Drivers/STM32U5xx_HAL_Driver/Src/stm32u5xx_hal.c ****   * @note   The Vdd I/O compensation cell can be used only when the device supply
 775:Drivers/STM32U5xx_HAL_Driver/Src/stm32u5xx_hal.c ****   *         voltage ranges from 1.08 to 3.6 V
 776:Drivers/STM32U5xx_HAL_Driver/Src/stm32u5xx_hal.c ****   * @retval None
 777:Drivers/STM32U5xx_HAL_Driver/Src/stm32u5xx_hal.c ****   */
 778:Drivers/STM32U5xx_HAL_Driver/Src/stm32u5xx_hal.c **** void HAL_SYSCFG_DisableVddIO2CompensationCell(void)
ARM GAS  /tmp/ccEI086O.s 			page 38


 779:Drivers/STM32U5xx_HAL_Driver/Src/stm32u5xx_hal.c **** {
 1324              		.loc 1 779 1 is_stmt 1 view -0
 1325              		.cfi_startproc
 1326              		@ args = 0, pretend = 0, frame = 0
 1327              		@ frame_needed = 0, uses_anonymous_args = 0
 1328              		@ link register save eliminated.
 780:Drivers/STM32U5xx_HAL_Driver/Src/stm32u5xx_hal.c ****   CLEAR_BIT(SYSCFG->CCCSR, SYSCFG_CCCSR_EN2);
 1329              		.loc 1 780 3 view .LVU241
 1330 0000 024A     		ldr	r2, .L127
 1331 0002 D369     		ldr	r3, [r2, #28]
 1332 0004 23F00403 		bic	r3, r3, #4
 1333 0008 D361     		str	r3, [r2, #28]
 781:Drivers/STM32U5xx_HAL_Driver/Src/stm32u5xx_hal.c **** }
 1334              		.loc 1 781 1 is_stmt 0 view .LVU242
 1335 000a 7047     		bx	lr
 1336              	.L128:
 1337              		.align	2
 1338              	.L127:
 1339 000c 00040046 		.word	1174406144
 1340              		.cfi_endproc
 1341              	.LFE192:
 1343              		.section	.text.HAL_SYSCFG_Lock,"ax",%progbits
 1344              		.align	1
 1345              		.global	HAL_SYSCFG_Lock
 1346              		.syntax unified
 1347              		.thumb
 1348              		.thumb_func
 1350              	HAL_SYSCFG_Lock:
 1351              	.LVL39:
 1352              	.LFB193:
 782:Drivers/STM32U5xx_HAL_Driver/Src/stm32u5xx_hal.c **** 
 783:Drivers/STM32U5xx_HAL_Driver/Src/stm32u5xx_hal.c **** #if defined(SYSCFG_CCCSR_EN3)
 784:Drivers/STM32U5xx_HAL_Driver/Src/stm32u5xx_hal.c **** /**
 785:Drivers/STM32U5xx_HAL_Driver/Src/stm32u5xx_hal.c ****   * @brief  Disable the Compensation Cell of HSPI IO supplied by VDD
 786:Drivers/STM32U5xx_HAL_Driver/Src/stm32u5xx_hal.c ****   * @rmtoll CCCSR   EN3    HAL_SYSCFG_DisableVddHSPICompensationCell
 787:Drivers/STM32U5xx_HAL_Driver/Src/stm32u5xx_hal.c ****   * @retval None
 788:Drivers/STM32U5xx_HAL_Driver/Src/stm32u5xx_hal.c ****   */
 789:Drivers/STM32U5xx_HAL_Driver/Src/stm32u5xx_hal.c **** void HAL_SYSCFG_DisableVddHSPICompensationCell(void)
 790:Drivers/STM32U5xx_HAL_Driver/Src/stm32u5xx_hal.c **** {
 791:Drivers/STM32U5xx_HAL_Driver/Src/stm32u5xx_hal.c ****   CLEAR_BIT(SYSCFG->CCCSR, SYSCFG_CCCSR_EN3);
 792:Drivers/STM32U5xx_HAL_Driver/Src/stm32u5xx_hal.c **** }
 793:Drivers/STM32U5xx_HAL_Driver/Src/stm32u5xx_hal.c **** #endif /* SYSCFG_CCCSR_EN3 */
 794:Drivers/STM32U5xx_HAL_Driver/Src/stm32u5xx_hal.c **** /**
 795:Drivers/STM32U5xx_HAL_Driver/Src/stm32u5xx_hal.c ****   * @}
 796:Drivers/STM32U5xx_HAL_Driver/Src/stm32u5xx_hal.c ****   */
 797:Drivers/STM32U5xx_HAL_Driver/Src/stm32u5xx_hal.c **** 
 798:Drivers/STM32U5xx_HAL_Driver/Src/stm32u5xx_hal.c **** /** @defgroup HAL_Exported_Functions_Group5 HAL SYSCFG lock management functions
 799:Drivers/STM32U5xx_HAL_Driver/Src/stm32u5xx_hal.c ****   *  @brief SYSCFG lock management functions.
 800:Drivers/STM32U5xx_HAL_Driver/Src/stm32u5xx_hal.c ****   *
 801:Drivers/STM32U5xx_HAL_Driver/Src/stm32u5xx_hal.c **** @verbatim
 802:Drivers/STM32U5xx_HAL_Driver/Src/stm32u5xx_hal.c ****  ===============================================================================
 803:Drivers/STM32U5xx_HAL_Driver/Src/stm32u5xx_hal.c ****                        ##### SYSCFG lock functions #####
 804:Drivers/STM32U5xx_HAL_Driver/Src/stm32u5xx_hal.c ****  ===============================================================================
 805:Drivers/STM32U5xx_HAL_Driver/Src/stm32u5xx_hal.c **** 
 806:Drivers/STM32U5xx_HAL_Driver/Src/stm32u5xx_hal.c **** @endverbatim
 807:Drivers/STM32U5xx_HAL_Driver/Src/stm32u5xx_hal.c ****   * @{
 808:Drivers/STM32U5xx_HAL_Driver/Src/stm32u5xx_hal.c ****   */
ARM GAS  /tmp/ccEI086O.s 			page 39


 809:Drivers/STM32U5xx_HAL_Driver/Src/stm32u5xx_hal.c **** 
 810:Drivers/STM32U5xx_HAL_Driver/Src/stm32u5xx_hal.c **** /**
 811:Drivers/STM32U5xx_HAL_Driver/Src/stm32u5xx_hal.c ****   * @brief  Lock the SYSCFG item(s).
 812:Drivers/STM32U5xx_HAL_Driver/Src/stm32u5xx_hal.c ****   * @note   Setting lock(s) depends on privilege mode in secure/non-secure code
 813:Drivers/STM32U5xx_HAL_Driver/Src/stm32u5xx_hal.c ****   *         Lock(s) cleared only at system reset
 814:Drivers/STM32U5xx_HAL_Driver/Src/stm32u5xx_hal.c ****   * @param  Item Item(s) to set lock on.
 815:Drivers/STM32U5xx_HAL_Driver/Src/stm32u5xx_hal.c ****   *         This parameter can be a combination of @ref SYSCFG_Lock_items
 816:Drivers/STM32U5xx_HAL_Driver/Src/stm32u5xx_hal.c ****   * @retval None
 817:Drivers/STM32U5xx_HAL_Driver/Src/stm32u5xx_hal.c ****   */
 818:Drivers/STM32U5xx_HAL_Driver/Src/stm32u5xx_hal.c **** void HAL_SYSCFG_Lock(uint32_t Item)
 819:Drivers/STM32U5xx_HAL_Driver/Src/stm32u5xx_hal.c **** {
 1353              		.loc 1 819 1 is_stmt 1 view -0
 1354              		.cfi_startproc
 1355              		@ args = 0, pretend = 0, frame = 0
 1356              		@ frame_needed = 0, uses_anonymous_args = 0
 1357              		@ link register save eliminated.
 820:Drivers/STM32U5xx_HAL_Driver/Src/stm32u5xx_hal.c ****   /* Check the parameters */
 821:Drivers/STM32U5xx_HAL_Driver/Src/stm32u5xx_hal.c ****   assert_param(IS_SYSCFG_LOCK_ITEMS(Item));
 1358              		.loc 1 821 3 view .LVU244
 822:Drivers/STM32U5xx_HAL_Driver/Src/stm32u5xx_hal.c **** 
 823:Drivers/STM32U5xx_HAL_Driver/Src/stm32u5xx_hal.c ****   /* Privilege secure/non-secure locks */
 824:Drivers/STM32U5xx_HAL_Driver/Src/stm32u5xx_hal.c ****   SYSCFG->CNSLCKR = (0xFFFFU & Item);  /* non-secure lock item in 16 lowest bits */
 1359              		.loc 1 824 3 view .LVU245
 1360              		.loc 1 824 30 is_stmt 0 view .LVU246
 1361 0000 80B2     		uxth	r0, r0
 1362              	.LVL40:
 1363              		.loc 1 824 19 view .LVU247
 1364 0002 014B     		ldr	r3, .L130
 1365 0004 D860     		str	r0, [r3, #12]
 825:Drivers/STM32U5xx_HAL_Driver/Src/stm32u5xx_hal.c **** 
 826:Drivers/STM32U5xx_HAL_Driver/Src/stm32u5xx_hal.c **** #if defined (__ARM_FEATURE_CMSE) && (__ARM_FEATURE_CMSE == 3U)
 827:Drivers/STM32U5xx_HAL_Driver/Src/stm32u5xx_hal.c ****   /* Privilege secure only locks */
 828:Drivers/STM32U5xx_HAL_Driver/Src/stm32u5xx_hal.c ****   SYSCFG->CSLCKR = ((0xFFFF0000U & Item) >> 16U);  /* Secure-only lock item in 16 highest bits */
 829:Drivers/STM32U5xx_HAL_Driver/Src/stm32u5xx_hal.c **** #endif /* __ARM_FEATURE_CMSE */
 830:Drivers/STM32U5xx_HAL_Driver/Src/stm32u5xx_hal.c **** }
 1366              		.loc 1 830 1 view .LVU248
 1367 0006 7047     		bx	lr
 1368              	.L131:
 1369              		.align	2
 1370              	.L130:
 1371 0008 00040046 		.word	1174406144
 1372              		.cfi_endproc
 1373              	.LFE193:
 1375              		.section	.text.HAL_SYSCFG_GetLock,"ax",%progbits
 1376              		.align	1
 1377              		.global	HAL_SYSCFG_GetLock
 1378              		.syntax unified
 1379              		.thumb
 1380              		.thumb_func
 1382              	HAL_SYSCFG_GetLock:
 1383              	.LVL41:
 1384              	.LFB194:
 831:Drivers/STM32U5xx_HAL_Driver/Src/stm32u5xx_hal.c **** 
 832:Drivers/STM32U5xx_HAL_Driver/Src/stm32u5xx_hal.c **** /**
 833:Drivers/STM32U5xx_HAL_Driver/Src/stm32u5xx_hal.c ****   * @brief  Get the lock state of SYSCFG item.
 834:Drivers/STM32U5xx_HAL_Driver/Src/stm32u5xx_hal.c ****   * @note   Getting lock(s) depends on privilege mode in secure/non-secure code
 835:Drivers/STM32U5xx_HAL_Driver/Src/stm32u5xx_hal.c ****   * @param  pItem pointer to return locked items
ARM GAS  /tmp/ccEI086O.s 			page 40


 836:Drivers/STM32U5xx_HAL_Driver/Src/stm32u5xx_hal.c ****   *         the return value can be a combination of @ref SYSCFG_Lock_items
 837:Drivers/STM32U5xx_HAL_Driver/Src/stm32u5xx_hal.c ****   * @retval HAL status
 838:Drivers/STM32U5xx_HAL_Driver/Src/stm32u5xx_hal.c ****   */
 839:Drivers/STM32U5xx_HAL_Driver/Src/stm32u5xx_hal.c **** HAL_StatusTypeDef HAL_SYSCFG_GetLock(uint32_t *pItem)
 840:Drivers/STM32U5xx_HAL_Driver/Src/stm32u5xx_hal.c **** {
 1385              		.loc 1 840 1 is_stmt 1 view -0
 1386              		.cfi_startproc
 1387              		@ args = 0, pretend = 0, frame = 0
 1388              		@ frame_needed = 0, uses_anonymous_args = 0
 1389              		@ link register save eliminated.
 841:Drivers/STM32U5xx_HAL_Driver/Src/stm32u5xx_hal.c ****   uint32_t tmp_lock;
 1390              		.loc 1 841 3 view .LVU250
 842:Drivers/STM32U5xx_HAL_Driver/Src/stm32u5xx_hal.c **** 
 843:Drivers/STM32U5xx_HAL_Driver/Src/stm32u5xx_hal.c ****   /* Check null pointer */
 844:Drivers/STM32U5xx_HAL_Driver/Src/stm32u5xx_hal.c ****   if (pItem == NULL)
 1391              		.loc 1 844 3 view .LVU251
 1392              		.loc 1 844 6 is_stmt 0 view .LVU252
 1393 0000 20B1     		cbz	r0, .L134
 845:Drivers/STM32U5xx_HAL_Driver/Src/stm32u5xx_hal.c ****   {
 846:Drivers/STM32U5xx_HAL_Driver/Src/stm32u5xx_hal.c ****     return HAL_ERROR;
 847:Drivers/STM32U5xx_HAL_Driver/Src/stm32u5xx_hal.c ****   }
 848:Drivers/STM32U5xx_HAL_Driver/Src/stm32u5xx_hal.c **** 
 849:Drivers/STM32U5xx_HAL_Driver/Src/stm32u5xx_hal.c ****   /* Get the non-secure lock state */
 850:Drivers/STM32U5xx_HAL_Driver/Src/stm32u5xx_hal.c ****   tmp_lock = SYSCFG->CNSLCKR;
 1394              		.loc 1 850 3 is_stmt 1 view .LVU253
 1395              		.loc 1 850 12 is_stmt 0 view .LVU254
 1396 0002 034A     		ldr	r2, .L135
 1397 0004 D268     		ldr	r2, [r2, #12]
 1398              	.LVL42:
 851:Drivers/STM32U5xx_HAL_Driver/Src/stm32u5xx_hal.c **** 
 852:Drivers/STM32U5xx_HAL_Driver/Src/stm32u5xx_hal.c ****   /* Get the secure lock state in secure code */
 853:Drivers/STM32U5xx_HAL_Driver/Src/stm32u5xx_hal.c **** #if defined (__ARM_FEATURE_CMSE) && (__ARM_FEATURE_CMSE == 3U)
 854:Drivers/STM32U5xx_HAL_Driver/Src/stm32u5xx_hal.c ****   tmp_lock |= (SYSCFG->CSLCKR << 16U);
 855:Drivers/STM32U5xx_HAL_Driver/Src/stm32u5xx_hal.c **** #endif /* __ARM_FEATURE_CMSE */
 856:Drivers/STM32U5xx_HAL_Driver/Src/stm32u5xx_hal.c **** 
 857:Drivers/STM32U5xx_HAL_Driver/Src/stm32u5xx_hal.c ****   /* Return overall lock status */
 858:Drivers/STM32U5xx_HAL_Driver/Src/stm32u5xx_hal.c ****   *pItem = tmp_lock;
 1399              		.loc 1 858 3 is_stmt 1 view .LVU255
 1400              		.loc 1 858 10 is_stmt 0 view .LVU256
 1401 0006 0260     		str	r2, [r0]
 859:Drivers/STM32U5xx_HAL_Driver/Src/stm32u5xx_hal.c **** 
 860:Drivers/STM32U5xx_HAL_Driver/Src/stm32u5xx_hal.c ****   return HAL_OK;
 1402              		.loc 1 860 3 is_stmt 1 view .LVU257
 1403              		.loc 1 860 10 is_stmt 0 view .LVU258
 1404 0008 0020     		movs	r0, #0
 1405              	.LVL43:
 1406              		.loc 1 860 10 view .LVU259
 1407 000a 7047     		bx	lr
 1408              	.LVL44:
 1409              	.L134:
 846:Drivers/STM32U5xx_HAL_Driver/Src/stm32u5xx_hal.c ****   }
 1410              		.loc 1 846 12 view .LVU260
 1411 000c 0120     		movs	r0, #1
 1412              	.LVL45:
 861:Drivers/STM32U5xx_HAL_Driver/Src/stm32u5xx_hal.c **** }
 1413              		.loc 1 861 1 view .LVU261
 1414 000e 7047     		bx	lr
ARM GAS  /tmp/ccEI086O.s 			page 41


 1415              	.L136:
 1416              		.align	2
 1417              	.L135:
 1418 0010 00040046 		.word	1174406144
 1419              		.cfi_endproc
 1420              	.LFE194:
 1422              		.global	uwTickFreq
 1423              		.section	.data.uwTickFreq,"aw"
 1426              	uwTickFreq:
 1427 0000 01       		.byte	1
 1428              		.global	uwTickPrio
 1429              		.section	.data.uwTickPrio,"aw"
 1430              		.align	2
 1433              	uwTickPrio:
 1434 0000 10000000 		.word	16
 1435              		.global	uwTick
 1436              		.section	.bss.uwTick,"aw",%nobits
 1437              		.align	2
 1440              	uwTick:
 1441 0000 00000000 		.space	4
 1442              		.text
 1443              	.Letext0:
 1444              		.file 2 "Drivers/CMSIS/Device/ST/STM32U5xx/Include/stm32u575xx.h"
 1445              		.file 3 "/opt/st/stm32cubeide_1.16.0/plugins/com.st.stm32cube.ide.mcu.externaltools.gnu-tools-for-
 1446              		.file 4 "/opt/st/stm32cubeide_1.16.0/plugins/com.st.stm32cube.ide.mcu.externaltools.gnu-tools-for-
 1447              		.file 5 "Drivers/CMSIS/Include/core_cm33.h"
 1448              		.file 6 "Drivers/CMSIS/Device/ST/STM32U5xx/Include/system_stm32u5xx.h"
 1449              		.file 7 "Drivers/STM32U5xx_HAL_Driver/Inc/stm32u5xx_hal_def.h"
 1450              		.file 8 "Drivers/STM32U5xx_HAL_Driver/Inc/stm32u5xx_hal.h"
 1451              		.file 9 "Drivers/STM32U5xx_HAL_Driver/Inc/stm32u5xx_hal_cortex.h"
 1452              		.file 10 "Drivers/STM32U5xx_HAL_Driver/Inc/stm32u5xx_hal_rcc.h"
ARM GAS  /tmp/ccEI086O.s 			page 42

